MPLINK 5.08, LINKER
Linker Map File - Created Thu Feb 24 01:42:02 2022

                                 Section Info
                  Section       Type    Address   Location Size(Bytes)
                ---------  ---------  ---------  ---------  ---------
                   .org_0       code   0x000000    program   0x000130
                   .cinit    romdata   0x000130    program   0x000002
.config_300001_BUILD/DEFAULT/PRODUCTION/LAB4PG.    romdata   0x300001    program   0x000001
.config_300002_BUILD/DEFAULT/PRODUCTION/LAB4PG.    romdata   0x300002    program   0x000001
.config_300003_BUILD/DEFAULT/PRODUCTION/LAB4PG.    romdata   0x300003    program   0x000001
.config_300006_BUILD/DEFAULT/PRODUCTION/LAB4PG.    romdata   0x300006    program   0x000001



                              Program Memory Usage 
                               Start         End      
                           ---------   ---------      
                            0x000000    0x000131      
                            0x300001    0x300003      
                            0x300006    0x300006      
            310 out of 66584 program addresses used, program memory utilization is 0%



                              Symbols - Sorted by Name
                     Name    Address   Location    Storage File                     
                ---------  ---------  ---------  --------- ---------                
                 CHECK_Z0   0x0000a2    program     static D:\Documents\MPLABXProjects\ECE3301L\LAB4\PartG\Lab4pG.X\Lab4pG.asm
                 CHECK_Z1   0x0000c2    program     static D:\Documents\MPLABXProjects\ECE3301L\LAB4\PartG\Lab4pG.X\Lab4pG.asm
                 CHECK_Z2   0x0000e2    program     static D:\Documents\MPLABXProjects\ECE3301L\LAB4\PartG\Lab4pG.X\Lab4pG.asm
                 CHECK_Z3   0x000102    program     static D:\Documents\MPLABXProjects\ECE3301L\LAB4\PartG\Lab4pG.X\Lab4pG.asm
                 CHECK_Z4   0x00012c    program     static D:\Documents\MPLABXProjects\ECE3301L\LAB4\PartG\Lab4pG.X\Lab4pG.asm
                    JUMP0   0x0000a4    program     static D:\Documents\MPLABXProjects\ECE3301L\LAB4\PartG\Lab4pG.X\Lab4pG.asm
                    JUMP1   0x0000c4    program     static D:\Documents\MPLABXProjects\ECE3301L\LAB4\PartG\Lab4pG.X\Lab4pG.asm
                    JUMP2   0x0000e4    program     static D:\Documents\MPLABXProjects\ECE3301L\LAB4\PartG\Lab4pG.X\Lab4pG.asm
                    JUMP3   0x000104    program     static D:\Documents\MPLABXProjects\ECE3301L\LAB4\PartG\Lab4pG.X\Lab4pG.asm
                    JUMP4   0x00012e    program     static D:\Documents\MPLABXProjects\ECE3301L\LAB4\PartG\Lab4pG.X\Lab4pG.asm
                       L1   0x00011e    program     static D:\Documents\MPLABXProjects\ECE3301L\LAB4\PartG\Lab4pG.X\Lab4pG.asm
                MAIN_LOOP   0x000018    program     static D:\Documents\MPLABXProjects\ECE3301L\LAB4\PartG\Lab4pG.X\Lab4pG.asm
                 NGREATER   0x00011c    program     static D:\Documents\MPLABXProjects\ECE3301L\LAB4\PartG\Lab4pG.X\Lab4pG.asm
              PORTD21EQ00   0x00003a    program     static D:\Documents\MPLABXProjects\ECE3301L\LAB4\PartG\Lab4pG.X\Lab4pG.asm
              PORTD21EQ01   0x000030    program     static D:\Documents\MPLABXProjects\ECE3301L\LAB4\PartG\Lab4pG.X\Lab4pG.asm
                PORTD2EQ0   0x000026    program     static D:\Documents\MPLABXProjects\ECE3301L\LAB4\PartG\Lab4pG.X\Lab4pG.asm
                PORTD2EQ1   0x000022    program     static D:\Documents\MPLABXProjects\ECE3301L\LAB4\PartG\Lab4pG.X\Lab4pG.asm
                    START   0x000000    program     static D:\Documents\MPLABXProjects\ECE3301L\LAB4\PartG\Lab4pG.X\Lab4pG.asm
           SUBROUTINE_ADD   0x0000a6    program     static D:\Documents\MPLABXProjects\ECE3301L\LAB4\PartG\Lab4pG.X\Lab4pG.asm
           SUBROUTINE_AND   0x0000c6    program     static D:\Documents\MPLABXProjects\ECE3301L\LAB4\PartG\Lab4pG.X\Lab4pG.asm
           SUBROUTINE_BCD   0x000106    program     static D:\Documents\MPLABXProjects\ECE3301L\LAB4\PartG\Lab4pG.X\Lab4pG.asm
          SUBROUTINE_COMP   0x00008a    program     static D:\Documents\MPLABXProjects\ECE3301L\LAB4\PartG\Lab4pG.X\Lab4pG.asm
           SUBROUTINE_XOR   0x0000e6    program     static D:\Documents\MPLABXProjects\ECE3301L\LAB4\PartG\Lab4pG.X\Lab4pG.asm
                 TASK_ADD   0x000052    program     static D:\Documents\MPLABXProjects\ECE3301L\LAB4\PartG\Lab4pG.X\Lab4pG.asm
                 TASK_AND   0x000060    program     static D:\Documents\MPLABXProjects\ECE3301L\LAB4\PartG\Lab4pG.X\Lab4pG.asm
                 TASK_BCD   0x00007c    program     static D:\Documents\MPLABXProjects\ECE3301L\LAB4\PartG\Lab4pG.X\Lab4pG.asm
                TASK_COMP   0x000044    program     static D:\Documents\MPLABXProjects\ECE3301L\LAB4\PartG\Lab4pG.X\Lab4pG.asm
                 TASK_XOR   0x00006e    program     static D:\Documents\MPLABXProjects\ECE3301L\LAB4\PartG\Lab4pG.X\Lab4pG.asm



                              Symbols - Sorted by Address
                     Name    Address   Location    Storage File                     
                ---------  ---------  ---------  --------- ---------                
                    START   0x000000    program     static D:\Documents\MPLABXProjects\ECE3301L\LAB4\PartG\Lab4pG.X\Lab4pG.asm
                MAIN_LOOP   0x000018    program     static D:\Documents\MPLABXProjects\ECE3301L\LAB4\PartG\Lab4pG.X\Lab4pG.asm
                PORTD2EQ1   0x000022    program     static D:\Documents\MPLABXProjects\ECE3301L\LAB4\PartG\Lab4pG.X\Lab4pG.asm
                PORTD2EQ0   0x000026    program     static D:\Documents\MPLABXProjects\ECE3301L\LAB4\PartG\Lab4pG.X\Lab4pG.asm
              PORTD21EQ01   0x000030    program     static D:\Documents\MPLABXProjects\ECE3301L\LAB4\PartG\Lab4pG.X\Lab4pG.asm
              PORTD21EQ00   0x00003a    program     static D:\Documents\MPLABXProjects\ECE3301L\LAB4\PartG\Lab4pG.X\Lab4pG.asm
                TASK_COMP   0x000044    program     static D:\Documents\MPLABXProjects\ECE3301L\LAB4\PartG\Lab4pG.X\Lab4pG.asm
                 TASK_ADD   0x000052    program     static D:\Documents\MPLABXProjects\ECE3301L\LAB4\PartG\Lab4pG.X\Lab4pG.asm
                 TASK_AND   0x000060    program     static D:\Documents\MPLABXProjects\ECE3301L\LAB4\PartG\Lab4pG.X\Lab4pG.asm
                 TASK_XOR   0x00006e    program     static D:\Documents\MPLABXProjects\ECE3301L\LAB4\PartG\Lab4pG.X\Lab4pG.asm
                 TASK_BCD   0x00007c    program     static D:\Documents\MPLABXProjects\ECE3301L\LAB4\PartG\Lab4pG.X\Lab4pG.asm
          SUBROUTINE_COMP   0x00008a    program     static D:\Documents\MPLABXProjects\ECE3301L\LAB4\PartG\Lab4pG.X\Lab4pG.asm
                 CHECK_Z0   0x0000a2    program     static D:\Documents\MPLABXProjects\ECE3301L\LAB4\PartG\Lab4pG.X\Lab4pG.asm
                    JUMP0   0x0000a4    program     static D:\Documents\MPLABXProjects\ECE3301L\LAB4\PartG\Lab4pG.X\Lab4pG.asm
           SUBROUTINE_ADD   0x0000a6    program     static D:\Documents\MPLABXProjects\ECE3301L\LAB4\PartG\Lab4pG.X\Lab4pG.asm
                 CHECK_Z1   0x0000c2    program     static D:\Documents\MPLABXProjects\ECE3301L\LAB4\PartG\Lab4pG.X\Lab4pG.asm
                    JUMP1   0x0000c4    program     static D:\Documents\MPLABXProjects\ECE3301L\LAB4\PartG\Lab4pG.X\Lab4pG.asm
           SUBROUTINE_AND   0x0000c6    program     static D:\Documents\MPLABXProjects\ECE3301L\LAB4\PartG\Lab4pG.X\Lab4pG.asm
                 CHECK_Z2   0x0000e2    program     static D:\Documents\MPLABXProjects\ECE3301L\LAB4\PartG\Lab4pG.X\Lab4pG.asm
                    JUMP2   0x0000e4    program     static D:\Documents\MPLABXProjects\ECE3301L\LAB4\PartG\Lab4pG.X\Lab4pG.asm
           SUBROUTINE_XOR   0x0000e6    program     static D:\Documents\MPLABXProjects\ECE3301L\LAB4\PartG\Lab4pG.X\Lab4pG.asm
                 CHECK_Z3   0x000102    program     static D:\Documents\MPLABXProjects\ECE3301L\LAB4\PartG\Lab4pG.X\Lab4pG.asm
                    JUMP3   0x000104    program     static D:\Documents\MPLABXProjects\ECE3301L\LAB4\PartG\Lab4pG.X\Lab4pG.asm
           SUBROUTINE_BCD   0x000106    program     static D:\Documents\MPLABXProjects\ECE3301L\LAB4\PartG\Lab4pG.X\Lab4pG.asm
                 NGREATER   0x00011c    program     static D:\Documents\MPLABXProjects\ECE3301L\LAB4\PartG\Lab4pG.X\Lab4pG.asm
                       L1   0x00011e    program     static D:\Documents\MPLABXProjects\ECE3301L\LAB4\PartG\Lab4pG.X\Lab4pG.asm
                 CHECK_Z4   0x00012c    program     static D:\Documents\MPLABXProjects\ECE3301L\LAB4\PartG\Lab4pG.X\Lab4pG.asm
                    JUMP4   0x00012e    program     static D:\Documents\MPLABXProjects\ECE3301L\LAB4\PartG\Lab4pG.X\Lab4pG.asm


