

Microchip Technology PIC18 LITE Macro Assembler V1.34 build -361300703 
                                                                                               Wed Mar 09 16:25:38 2022

Microchip Technology Omniscient Code Generator (Lite mode) build 201502162209
     1                           	processor	18F4620
     2                           	fnconf	rparam,??,?,0
     3                           	opt	pw 120
     4                           	opt	lm
     5                           	psect	idataCOMRAM,global,class=CODE,delta=1
     6                           	psect	smallconst,global,reloc=2,class=SMALLCONST,delta=1
     7                           	psect	cinit,global,reloc=2,class=CODE,delta=1
     8                           	psect	dataCOMRAM,global,class=COMRAM,space=1,delta=1
     9                           	psect	cstackCOMRAM,global,class=COMRAM,space=1,delta=1
    10                           	psect	text0,global,reloc=2,class=CODE,delta=1
    11                           	psect	text1,global,reloc=2,class=CODE,delta=1
    12                           	psect	text2,global,reloc=2,class=CODE,delta=1
    13                           	psect	text3,global,reloc=2,class=CODE,delta=1
    14                           	psect	text4,global,reloc=2,class=CODE,delta=1
    15                           	psect	text5,global,reloc=2,class=CODE,delta=1
    16                           	psect	text6,global,reloc=2,class=CODE,delta=1
    17                           	psect	text7,global,reloc=2,class=CODE,delta=1
    18                           	psect	text8,global,reloc=2,class=CODE,delta=1
    19                           	psect	text9,global,reloc=2,class=CODE,delta=1
    20                           	psect	text10,global,reloc=2,class=CODE,delta=1
    21                           	psect	text11,global,reloc=2,class=CODE,delta=1
    22                           	psect	text12,global,reloc=2,class=CODE,delta=1
    23                           	psect	text13,global,reloc=2,class=CODE,delta=1
    24                           	psect	text14,global,reloc=2,class=CODE,delta=1
    25                           	psect	text15,global,reloc=2,class=CODE,delta=1
    26                           	psect	text16,global,reloc=2,class=CODE,delta=1
    27                           	psect	text17,global,reloc=2,class=CODE,delta=1
    28                           	psect	text18,global,reloc=2,class=CODE,delta=1
    29                           	psect	text19,global,reloc=2,class=CODE,delta=1
    30                           	psect	text20,global,reloc=2,class=CODE,delta=1
    31                           	psect	text21,global,reloc=2,class=CODE,delta=1
    32                           	psect	text22,global,reloc=2,class=CODE,delta=1
    33                           	psect	text23,global,reloc=2,class=CODE,delta=1
    34                           	psect	text24,global,reloc=2,class=CODE,delta=1
    35                           	psect	text25,global,reloc=2,class=CODE,delta=1
    36                           	psect	text26,global,reloc=2,class=CODE,delta=1
    37                           	psect	text27,global,reloc=2,class=CODE,delta=1
    38                           	psect	text28,global,reloc=2,class=CODE,delta=1
    39                           	psect	text29,global,reloc=2,class=CODE,delta=1
    40                           	psect	text30,global,reloc=2,class=CODE,delta=1
    41                           	psect	text31,global,reloc=2,class=CODE,delta=1
    42                           	psect	text32,global,reloc=2,class=CODE,delta=1
    43                           	psect	text33,global,reloc=2,class=CODE,delta=1
    44                           	psect	intsave_regs,global,class=BIGRAM,space=1,delta=1
    45                           	psect	rparam,global,class=COMRAM,space=1,delta=1
    46  0000                     
    47                           	psect	idataCOMRAM
    48  001D7C                     __pidataCOMRAM:
    49                           	opt stack 0
    50                           
    51                           ;initializer for _array
    52  001D7C  40                 	db	64
    53  001D7D  79                 	db	121
    54  001D7E  24                 	db	36
    55  001D7F  30                 	db	48
    56  001D80  19                 	db	25
    57  001D81  12                 	db	18
    58  001D82  02                 	db	2
    59  001D83  78                 	db	120
    60  001D84  00                 	db	0
    61  001D85  18                 	db	24
    62                           
    63                           	psect	smallconst
    64  001000                     __psmallconst:
    65                           	opt stack 0
    66  001000  00                 	db	0
    67  001001                     _dpowers:
    68                           	opt stack 0
    69  001001  0001               	dw	1
    70  001003  000A               	dw	10
    71  001005  0064               	dw	100
    72  001007  03E8               	dw	1000
    73  001009  2710               	dw	10000
    74  00100B                     __end_of_dpowers:
    75                           	opt stack 0
    76  0000                     _ADCON0	set	4034
    77  0000                     _ADCON0bits	set	4034
    78  0000                     _ADCON1	set	4033
    79  0000                     _ADCON2	set	4032
    80  0000                     _ADRESH	set	4036
    81  0000                     _ADRESL	set	4035
    82  0000                     _OSCCON	set	4051
    83  0000                     _PIE1bits	set	3997
    84  0000                     _PIR1bits	set	3998
    85  0000                     _PORTAbits	set	3968
    86  0000                     _PORTB	set	3969
    87  0000                     _PORTBbits	set	3969
    88  0000                     _PORTC	set	3970
    89  0000                     _PORTD	set	3971
    90  0000                     _PORTE	set	3972
    91  0000                     _RCSTA	set	4011
    92  0000                     _RCSTAbits	set	4011
    93  0000                     _SPBRG	set	4015
    94  0000                     _SPBRGH	set	4016
    95  0000                     _TRISA	set	3986
    96  0000                     _TRISB	set	3987
    97  0000                     _TRISC	set	3988
    98  0000                     _TRISCbits	set	3988
    99  0000                     _TRISD	set	3989
   100  0000                     _TRISE	set	3990
   101  0000                     _TXREG	set	4013
   102  0000                     _TXSTA	set	4012
   103  0000                     _TXSTAbits	set	4012
   104  0000                     _TRMT	set	32097
   105  00100B                     STR_1:
   106  00100B  54                 	db	84	;'T'
   107  00100C  65                 	db	101	;'e'
   108  00100D  6D                 	db	109	;'m'
   109  00100E  70                 	db	112	;'p'
   110  00100F  65                 	db	101	;'e'
   111  001010  72                 	db	114	;'r'
   112  001011  61                 	db	97	;'a'
   113  001012  74                 	db	116	;'t'
   114  001013  75                 	db	117	;'u'
   115  001014  72                 	db	114	;'r'
   116  001015  65                 	db	101	;'e'
   117  001016  20                 	db	32
   118  001017  3D                 	db	61	;'='
   119  001018  20                 	db	32
   120  001019  25                 	db	37
   121  00101A  64                 	db	100	;'d'
   122  00101B  20                 	db	32
   123  00101C  46                 	db	70	;'F'
   124  00101D  20                 	db	32
   125  00101E  0D                 	db	13
   126  00101F  0A                 	db	10
   127  001020  0A                 	db	10
   128  001021  00                 	db	0
   129  001022                     STR_2:
   130  001022  4C                 	db	76	;'L'
   131  001023  69                 	db	105	;'i'
   132  001024  67                 	db	103	;'g'
   133  001025  68                 	db	104	;'h'
   134  001026  74                 	db	116	;'t'
   135  001027  20                 	db	32
   136  001028  56                 	db	86	;'V'
   137  001029  6F                 	db	111	;'o'
   138  00102A  6C                 	db	108	;'l'
   139  00102B  74                 	db	116	;'t'
   140  00102C  20                 	db	32
   141  00102D  3D                 	db	61	;'='
   142  00102E  20                 	db	32
   143  00102F  25                 	db	37
   144  001030  64                 	db	100	;'d'
   145  001031  20                 	db	32
   146  001032  6D                 	db	109	;'m'
   147  001033  56                 	db	86	;'V'
   148  001034  20                 	db	32
   149  001035  0D                 	db	13
   150  001036  0A                 	db	10
   151  001037  0A                 	db	10
   152  001038  00                 	db	0
   153                           
   154                           ; #config settings
   155  001039  00                 	db	0	; dummy byte at the end
   156  0000                     
   157                           	psect	cinit
   158  001C88                     __pcinit:
   159                           	opt stack 0
   160  001C88                     start_initialization:
   161                           	opt stack 0
   162  001C88                     __initialization:
   163                           	opt stack 0
   164                           
   165                           ; Initialize objects allocated to COMRAM (10 bytes)
   166                           ; load TBLPTR registers with __pidataCOMRAM
   167  001C88  0E7C               	movlw	low __pidataCOMRAM
   168  001C8A  6EF6               	movwf	tblptrl,c
   169  001C8C  0E1D               	movlw	high __pidataCOMRAM
   170  001C8E  6EF7               	movwf	tblptrh,c
   171  001C90  0E00               	movlw	low (__pidataCOMRAM shr (0+16))
   172  001C92  6EF8               	movwf	tblptru,c
   173  001C94  EE00  F04A         	lfsr	0,__pdataCOMRAM
   174  001C98  EE10 F00A          	lfsr	1,10
   175  001C9C                     copy_data0:
   176  001C9C  0009               	tblrd		*+
   177  001C9E  CFF5 FFEE          	movff	tablat,postinc0
   178  001CA2  50E5               	movf	postdec1,w,c
   179  001CA4  50E1               	movf	fsr1l,w,c
   180  001CA6  E1FA               	bnz	copy_data0
   181  001CA8                     end_of_initialization:
   182                           	opt stack 0
   183  001CA8                     __end_of__initialization:
   184                           	opt stack 0
   185  001CA8  0E00               	movlw	low (__Lmediumconst shr (0+16))
   186  001CAA  6EF8               	movwf	tblptru,c
   187  001CAC  0100               	movlb	0
   188  001CAE  EF1D  F008         	goto	_main	;jump to C main() function
   189                           tblptru	equ	0xFF8
   190                           tblptrh	equ	0xFF7
   191                           tblptrl	equ	0xFF6
   192                           tablat	equ	0xFF5
   193                           postinc0	equ	0xFEE
   194                           postdec1	equ	0xFE5
   195                           fsr1l	equ	0xFE1
   196                           
   197                           	psect	dataCOMRAM
   198  00004A                     __pdataCOMRAM:
   199                           	opt stack 0
   200  00004A                     _array:
   201                           	opt stack 0
   202  00004A                     	ds	10
   203                           tblptru	equ	0xFF8
   204                           tblptrh	equ	0xFF7
   205                           tblptrl	equ	0xFF6
   206                           tablat	equ	0xFF5
   207                           postinc0	equ	0xFEE
   208                           postdec1	equ	0xFE5
   209                           fsr1l	equ	0xFE1
   210                           
   211                           	psect	cstackCOMRAM
   212  000001                     __pcstackCOMRAM:
   213                           	opt stack 0
   214  000001                     ?_Get_Full_ADC:
   215                           	opt stack 0
   216  000001                     ?___awdiv:
   217                           	opt stack 0
   218  000001                     ?___awmod:
   219                           	opt stack 0
   220  000001                     ?___lwdiv:
   221                           	opt stack 0
   222  000001                     ?___ftpack:
   223                           	opt stack 0
   224  000001                     ?___ftneg:
   225                           	opt stack 0
   226  000001                     ?___fttol:
   227                           	opt stack 0
   228  000001                     Select_ADC_Channel@channel:
   229                           	opt stack 0
   230  000001                     putch@c:
   231                           	opt stack 0
   232  000001                     Display_Upper_Digit@PE:
   233                           	opt stack 0
   234  000001                     Display_Lower_Digit@digit:
   235                           	opt stack 0
   236  000001                     WAIT_1_SEC@j:
   237                           	opt stack 0
   238  000001                     DO_DISPLAY_D1@temp:
   239                           	opt stack 0
   240  000001                     DO_DISPLAY_D3@voltage:
   241                           	opt stack 0
   242  000001                     OpenUSART@spbrg:
   243                           	opt stack 0
   244  000001                     ___awdiv@dividend:
   245                           	opt stack 0
   246  000001                     ___awmod@dividend:
   247                           	opt stack 0
   248  000001                     ___lwdiv@dividend:
   249                           	opt stack 0
   250  000001                     ___ftpack@arg:
   251                           	opt stack 0
   252  000001                     ___ftneg@f1:
   253                           	opt stack 0
   254  000001                     ___fttol@f1:
   255                           	opt stack 0
   256                           
   257                           ; 3 bytes @ 0x0
   258  000001                     	ds	1
   259  000002                     Display_Upper_Digit@digit:
   260                           	opt stack 0
   261                           
   262                           ; 1 bytes @ 0x1
   263  000002                     	ds	1
   264  000003                     ??_Get_Full_ADC:
   265  000003                     OpenUSART@config:
   266                           	opt stack 0
   267  000003                     ___awdiv@divisor:
   268                           	opt stack 0
   269  000003                     ___awmod@divisor:
   270                           	opt stack 0
   271  000003                     ___lwdiv@divisor:
   272                           	opt stack 0
   273                           
   274                           ; 2 bytes @ 0x2
   275  000003                     	ds	1
   276  000004                     ___ftpack@exp:
   277                           	opt stack 0
   278                           
   279                           ; 1 bytes @ 0x3
   280  000004                     	ds	1
   281  000005                     ??___fttol:
   282  000005                     ___awdiv@counter:
   283                           	opt stack 0
   284  000005                     ___awmod@counter:
   285                           	opt stack 0
   286  000005                     ___ftpack@sign:
   287                           	opt stack 0
   288  000005                     Get_Full_ADC@result:
   289                           	opt stack 0
   290  000005                     ___lwdiv@quotient:
   291                           	opt stack 0
   292                           
   293                           ; 2 bytes @ 0x4
   294  000005                     	ds	1
   295  000006                     ??___ftpack:
   296  000006                     ___awdiv@sign:
   297                           	opt stack 0
   298  000006                     ___awmod@sign:
   299                           	opt stack 0
   300                           
   301                           ; 1 bytes @ 0x5
   302  000006                     	ds	1
   303  000007                     ___lwdiv@counter:
   304                           	opt stack 0
   305  000007                     ___awdiv@quotient:
   306                           	opt stack 0
   307                           
   308                           ; 2 bytes @ 0x6
   309  000007                     	ds	1
   310  000008                     ?___lwmod:
   311                           	opt stack 0
   312  000008                     ___lwmod@dividend:
   313                           	opt stack 0
   314                           
   315                           ; 2 bytes @ 0x7
   316  000008                     	ds	1
   317  000009                     ?___awtoft:
   318                           	opt stack 0
   319  000009                     DO_DISPLAY_D2@temp:
   320                           	opt stack 0
   321  000009                     ___awtoft@c:
   322                           	opt stack 0
   323                           
   324                           ; 2 bytes @ 0x8
   325  000009                     	ds	1
   326  00000A                     ___fttol@sign1:
   327                           	opt stack 0
   328  00000A                     ___lwmod@divisor:
   329                           	opt stack 0
   330                           
   331                           ; 2 bytes @ 0x9
   332  00000A                     	ds	1
   333  00000B                     DO_DISPLAY_D2@T:
   334                           	opt stack 0
   335  00000B                     ___fttol@lval:
   336                           	opt stack 0
   337                           
   338                           ; 4 bytes @ 0xA
   339  00000B                     	ds	1
   340  00000C                     ___awtoft@sign:
   341                           	opt stack 0
   342  00000C                     ___lwmod@counter:
   343                           	opt stack 0
   344                           
   345                           ; 1 bytes @ 0xB
   346  00000C                     	ds	1
   347  00000D                     ?_printf:
   348                           	opt stack 0
   349  00000D                     ?___ftmul:
   350                           	opt stack 0
   351  00000D                     printf@f:
   352                           	opt stack 0
   353  00000D                     ___ftmul@f1:
   354                           	opt stack 0
   355                           
   356                           ; 3 bytes @ 0xC
   357  00000D                     	ds	2
   358  00000F                     ___fttol@exp1:
   359                           	opt stack 0
   360                           
   361                           ; 1 bytes @ 0xE
   362  00000F                     	ds	1
   363  000010                     ___ftmul@f2:
   364                           	opt stack 0
   365                           
   366                           ; 3 bytes @ 0xF
   367  000010                     	ds	1
   368  000011                     ??_printf:
   369                           
   370                           ; 0 bytes @ 0x10
   371  000011                     	ds	1
   372  000012                     printf@ap:
   373                           	opt stack 0
   374                           
   375                           ; 2 bytes @ 0x11
   376  000012                     	ds	1
   377  000013                     ??___ftmul:
   378                           
   379                           ; 0 bytes @ 0x12
   380  000013                     	ds	1
   381  000014                     printf@flag:
   382                           	opt stack 0
   383                           
   384                           ; 1 bytes @ 0x13
   385  000014                     	ds	1
   386  000015                     printf@prec:
   387                           	opt stack 0
   388                           
   389                           ; 1 bytes @ 0x14
   390  000015                     	ds	1
   391  000016                     ___ftmul@exp:
   392                           	opt stack 0
   393  000016                     printf@val:
   394                           	opt stack 0
   395                           
   396                           ; 2 bytes @ 0x15
   397  000016                     	ds	1
   398  000017                     ___ftmul@f3_as_product:
   399                           	opt stack 0
   400                           
   401                           ; 3 bytes @ 0x16
   402  000017                     	ds	1
   403  000018                     printf@c:
   404                           	opt stack 0
   405                           
   406                           ; 1 bytes @ 0x17
   407  000018                     	ds	2
   408  00001A                     ___ftmul@cntr:
   409                           	opt stack 0
   410                           
   411                           ; 1 bytes @ 0x19
   412  00001A                     	ds	1
   413  00001B                     ___ftmul@sign:
   414                           	opt stack 0
   415                           
   416                           ; 1 bytes @ 0x1A
   417  00001B                     	ds	1
   418  00001C                     ?___ftadd:
   419                           	opt stack 0
   420  00001C                     ___ftadd@f1:
   421                           	opt stack 0
   422                           
   423                           ; 3 bytes @ 0x1B
   424  00001C                     	ds	3
   425  00001F                     ___ftadd@f2:
   426                           	opt stack 0
   427                           
   428                           ; 3 bytes @ 0x1E
   429  00001F                     	ds	3
   430  000022                     ??___ftadd:
   431                           
   432                           ; 0 bytes @ 0x21
   433  000022                     	ds	3
   434  000025                     ___ftadd@sign:
   435                           	opt stack 0
   436                           
   437                           ; 1 bytes @ 0x24
   438  000025                     	ds	1
   439  000026                     ___ftadd@exp2:
   440                           	opt stack 0
   441                           
   442                           ; 1 bytes @ 0x25
   443  000026                     	ds	1
   444  000027                     ___ftadd@exp1:
   445                           	opt stack 0
   446                           
   447                           ; 1 bytes @ 0x26
   448  000027                     	ds	1
   449  000028                     ?___ftdiv:
   450                           	opt stack 0
   451  000028                     ___ftdiv@f1:
   452                           	opt stack 0
   453                           
   454                           ; 3 bytes @ 0x27
   455  000028                     	ds	3
   456  00002B                     ___ftdiv@f2:
   457                           	opt stack 0
   458                           
   459                           ; 3 bytes @ 0x2A
   460  00002B                     	ds	3
   461  00002E                     ??___ftdiv:
   462                           
   463                           ; 0 bytes @ 0x2D
   464  00002E                     	ds	3
   465  000031                     ___ftdiv@cntr:
   466                           	opt stack 0
   467                           
   468                           ; 1 bytes @ 0x30
   469  000031                     	ds	1
   470  000032                     ___ftdiv@f3:
   471                           	opt stack 0
   472                           
   473                           ; 3 bytes @ 0x31
   474  000032                     	ds	3
   475  000035                     ___ftdiv@exp:
   476                           	opt stack 0
   477                           
   478                           ; 1 bytes @ 0x34
   479  000035                     	ds	1
   480  000036                     ___ftdiv@sign:
   481                           	opt stack 0
   482                           
   483                           ; 1 bytes @ 0x35
   484  000036                     	ds	1
   485  000037                     ??_main:
   486                           
   487                           ; 0 bytes @ 0x36
   488  000037                     	ds	2
   489  000039                     main@voltage_mv:
   490                           	opt stack 0
   491                           
   492                           ; 3 bytes @ 0x38
   493  000039                     	ds	3
   494  00003C                     main@temperature_C:
   495                           	opt stack 0
   496                           
   497                           ; 3 bytes @ 0x3B
   498  00003C                     	ds	3
   499  00003F                     main@temperature_F:
   500                           	opt stack 0
   501                           
   502                           ; 3 bytes @ 0x3E
   503  00003F                     	ds	3
   504  000042                     main@U:
   505                           	opt stack 0
   506                           
   507                           ; 1 bytes @ 0x41
   508  000042                     	ds	1
   509  000043                     main@L:
   510                           	opt stack 0
   511                           
   512                           ; 1 bytes @ 0x42
   513  000043                     	ds	1
   514  000044                     main@voltage_mv1:
   515                           	opt stack 0
   516                           
   517                           ; 2 bytes @ 0x43
   518  000044                     	ds	2
   519  000046                     main@num_step:
   520                           	opt stack 0
   521                           
   522                           ; 2 bytes @ 0x45
   523  000046                     	ds	2
   524  000048                     main@tempF:
   525                           	opt stack 0
   526                           
   527                           ; 2 bytes @ 0x47
   528  000048                     	ds	2
   529                           tblptru	equ	0xFF8
   530                           tblptrh	equ	0xFF7
   531                           tblptrl	equ	0xFF6
   532                           tablat	equ	0xFF5
   533                           postinc0	equ	0xFEE
   534                           postdec1	equ	0xFE5
   535                           fsr1l	equ	0xFE1
   536                           
   537 ;;
   538 ;;Main: autosize = 0, tempsize = 2, incstack = 0, save=0
   539 ;;
   540 ;; *************** function _main *****************
   541 ;; Defined at:
   542 ;;		line 66 in file "Lab5_Test.c"
   543 ;; Parameters:    Size  Location     Type
   544 ;;		None
   545 ;; Auto vars:     Size  Location     Type
   546 ;;  temperature_    3   62[COMRAM] float 
   547 ;;  temperature_    3   59[COMRAM] float 
   548 ;;  voltage_mv      3   56[COMRAM] float 
   549 ;;  tempF           2   71[COMRAM] int 
   550 ;;  num_step        2   69[COMRAM] int 
   551 ;;  voltage_mv1     2   67[COMRAM] int 
   552 ;;  L               1   66[COMRAM] unsigned char 
   553 ;;  U               1   65[COMRAM] unsigned char 
   554 ;; Return value:  Size  Location     Type
   555 ;;		None               void
   556 ;; Registers used:
   557 ;;		wreg, fsr2l, fsr2h, status,2, status,0, tblptrl, tblptrh, tblptru, prodl, prodh, cstack
   558 ;; Tracked objects:
   559 ;;		On entry : 0/0
   560 ;;		On exit  : 0/0
   561 ;;		Unchanged: 0/0
   562 ;; Data sizes:     COMRAM   BANK0   BANK1   BANK2   BANK3   BANK4   BANK5   BANK6   BANK7   BANK8   BANK9  BANK10  BANK1
      +1  BANK12  BANK13  BANK14  BANK15
   563 ;;      Params:         0       0       0       0       0       0       0       0       0       0       0       0       
      +0       0       0       0       0
   564 ;;      Locals:        17       0       0       0       0       0       0       0       0       0       0       0       
      +0       0       0       0       0
   565 ;;      Temps:          2       0       0       0       0       0       0       0       0       0       0       0       
      +0       0       0       0       0
   566 ;;      Totals:        19       0       0       0       0       0       0       0       0       0       0       0       
      +0       0       0       0       0
   567 ;;Total ram usage:       19 bytes
   568 ;; Hardware stack levels required when called:    2
   569 ;; This function calls:
   570 ;;		_DO_DISPLAY_D1
   571 ;;		_DO_DISPLAY_D2
   572 ;;		_DO_DISPLAY_D3
   573 ;;		_Display_Lower_Digit
   574 ;;		_Display_Upper_Digit
   575 ;;		_Get_Full_ADC
   576 ;;		_Init_ADC
   577 ;;		_Init_TRIS
   578 ;;		_Init_UART
   579 ;;		_Select_ADC_Channel
   580 ;;		_WAIT_1_SEC
   581 ;;		___awdiv
   582 ;;		___awmod
   583 ;;		___awtoft
   584 ;;		___ftadd
   585 ;;		___ftdiv
   586 ;;		___ftmul
   587 ;;		___ftneg
   588 ;;		___fttol
   589 ;;		_printf
   590 ;; This function is called by:
   591 ;;		Startup code after reset
   592 ;; This function uses a non-reentrant model
   593 ;;
   594                           
   595                           	psect	text0
   596  00103A                     __ptext0:
   597                           	opt stack 0
   598  00103A                     _main:
   599                           	opt stack 29
   600                           
   601                           ;Lab5_Test.c: 68: Init_UART();
   602                           
   603                           ;incstack = 0
   604  00103A  ECA7  F00E         	call	_Init_UART	;wreg free
   605                           
   606                           ;Lab5_Test.c: 69: Init_ADC();
   607  00103E  ECC3  F00E         	call	_Init_ADC	;wreg free
   608                           
   609                           ;Lab5_Test.c: 70: Init_TRIS();
   610  001042  EC9C  F00E         	call	_Init_TRIS	;wreg free
   611                           
   612                           ;Lab5_Test.c: 71: PORTC = 0xFF;
   613  001046  6882               	setf	3970,c	;volatile
   614                           
   615                           ;Lab5_Test.c: 72: PORTD = 0xFF;
   616  001048  6883               	setf	3971,c	;volatile
   617                           
   618                           ;Lab5_Test.c: 73: PORTB = 0x00;
   619  00104A  0E00               	movlw	0
   620  00104C  6E81               	movwf	3969,c	;volatile
   621  00104E  D000               	goto	l2015
   622  001050                     l2015:
   623                           
   624                           ;Lab5_Test.c: 76: {
   625                           ;Lab5_Test.c: 77: Select_ADC_Channel(0);
   626  001050  0E00               	movlw	0
   627  001052  ECB8  F00E         	call	_Select_ADC_Channel
   628                           
   629                           ;Lab5_Test.c: 78: int num_step = Get_Full_ADC();
   630  001056  EC59  F00E         	call	_Get_Full_ADC	;wreg free
   631  00105A  C001  F046         	movff	?_Get_Full_ADC,main@num_step
   632  00105E  C002  F047         	movff	?_Get_Full_ADC+1,main@num_step+1
   633                           
   634                           ;Lab5_Test.c: 79: float voltage_mv = num_step * 4.0;
   635  001062  C046  F009         	movff	main@num_step,___awtoft@c
   636  001066  C047  F00A         	movff	main@num_step+1,___awtoft@c+1
   637  00106A  EC26  F00E         	call	___awtoft	;wreg free
   638  00106E  C009  F00D         	movff	?___awtoft,___ftmul@f1
   639  001072  C00A  F00E         	movff	?___awtoft+1,___ftmul@f1+1
   640  001076  C00B  F00F         	movff	?___awtoft+2,___ftmul@f1+2
   641  00107A  0E00               	movlw	0
   642  00107C  6E10               	movwf	___ftmul@f2,c
   643  00107E  0E80               	movlw	128
   644  001080  6E11               	movwf	___ftmul@f2+1,c
   645  001082  0E40               	movlw	64
   646  001084  6E12               	movwf	___ftmul@f2+2,c
   647  001086  EC84  F00A         	call	___ftmul	;wreg free
   648  00108A  C00D  F039         	movff	?___ftmul,main@voltage_mv
   649  00108E  C00E  F03A         	movff	?___ftmul+1,main@voltage_mv+1
   650  001092  C00F  F03B         	movff	?___ftmul+2,main@voltage_mv+2
   651                           
   652                           ;Lab5_Test.c: 80: float temperature_C = (1035.0 - voltage_mv) / 5.50;
   653  001096  0E60               	movlw	96
   654  001098  6E1F               	movwf	___ftadd@f2,c
   655  00109A  0E81               	movlw	129
   656  00109C  6E20               	movwf	___ftadd@f2+1,c
   657  00109E  0E44               	movlw	68
   658  0010A0  6E21               	movwf	___ftadd@f2+2,c
   659  0010A2  C039  F001         	movff	main@voltage_mv,___ftneg@f1
   660  0010A6  C03A  F002         	movff	main@voltage_mv+1,___ftneg@f1+1
   661  0010AA  C03B  F003         	movff	main@voltage_mv+2,___ftneg@f1+2
   662  0010AE  EC6C  F00E         	call	___ftneg	;wreg free
   663  0010B2  C001  F01C         	movff	?___ftneg,___ftadd@f1
   664  0010B6  C002  F01D         	movff	?___ftneg+1,___ftadd@f1+1
   665  0010BA  C003  F01E         	movff	?___ftneg+2,___ftadd@f1+2
   666  0010BE  EC03  F009         	call	___ftadd	;wreg free
   667  0010C2  C01C  F028         	movff	?___ftadd,___ftdiv@f1
   668  0010C6  C01D  F029         	movff	?___ftadd+1,___ftdiv@f1+1
   669  0010CA  C01E  F02A         	movff	?___ftadd+2,___ftdiv@f1+2
   670  0010CE  0E00               	movlw	0
   671  0010D0  6E2B               	movwf	___ftdiv@f2,c
   672  0010D2  0EB0               	movlw	176
   673  0010D4  6E2C               	movwf	___ftdiv@f2+1,c
   674  0010D6  0E40               	movlw	64
   675  0010D8  6E2D               	movwf	___ftdiv@f2+2,c
   676  0010DA  EC73  F00B         	call	___ftdiv	;wreg free
   677  0010DE  C028  F03C         	movff	?___ftdiv,main@temperature_C
   678  0010E2  C029  F03D         	movff	?___ftdiv+1,main@temperature_C+1
   679  0010E6  C02A  F03E         	movff	?___ftdiv+2,main@temperature_C+2
   680                           
   681                           ;Lab5_Test.c: 81: float temperature_F = 1.80 * temperature_C + 32.0;
   682  0010EA  0E66               	movlw	102
   683  0010EC  6E10               	movwf	___ftmul@f2,c
   684  0010EE  0EE6               	movlw	230
   685  0010F0  6E11               	movwf	___ftmul@f2+1,c
   686  0010F2  0E3F               	movlw	63
   687  0010F4  6E12               	movwf	___ftmul@f2+2,c
   688  0010F6  C03C  F00D         	movff	main@temperature_C,___ftmul@f1
   689  0010FA  C03D  F00E         	movff	main@temperature_C+1,___ftmul@f1+1
   690  0010FE  C03E  F00F         	movff	main@temperature_C+2,___ftmul@f1+2
   691  001102  EC84  F00A         	call	___ftmul	;wreg free
   692  001106  C00D  F01C         	movff	?___ftmul,___ftadd@f1
   693  00110A  C00E  F01D         	movff	?___ftmul+1,___ftadd@f1+1
   694  00110E  C00F  F01E         	movff	?___ftmul+2,___ftadd@f1+2
   695  001112  0E00               	movlw	0
   696  001114  6E1F               	movwf	___ftadd@f2,c
   697  001116  0E00               	movlw	0
   698  001118  6E20               	movwf	___ftadd@f2+1,c
   699  00111A  0E42               	movlw	66
   700  00111C  6E21               	movwf	___ftadd@f2+2,c
   701  00111E  EC03  F009         	call	___ftadd	;wreg free
   702  001122  C01C  F03F         	movff	?___ftadd,main@temperature_F
   703  001126  C01D  F040         	movff	?___ftadd+1,main@temperature_F+1
   704  00112A  C01E  F041         	movff	?___ftadd+2,main@temperature_F+2
   705                           
   706                           ;Lab5_Test.c: 82: int tempF = (int)temperature_F;
   707  00112E  C03F  F001         	movff	main@temperature_F,___fttol@f1
   708  001132  C040  F002         	movff	main@temperature_F+1,___fttol@f1+1
   709  001136  C041  F003         	movff	main@temperature_F+2,___fttol@f1+2
   710  00113A  EC00  F00B         	call	___fttol	;wreg free
   711  00113E  C001  F048         	movff	?___fttol,main@tempF
   712  001142  C002  F049         	movff	?___fttol+1,main@tempF+1
   713                           
   714                           ;Lab5_Test.c: 83: char U = tempF / 10;
   715  001146  C048  F001         	movff	main@tempF,___awdiv@dividend
   716  00114A  C049  F002         	movff	main@tempF+1,___awdiv@dividend+1
   717  00114E  0E00               	movlw	0
   718  001150  6E04               	movwf	___awdiv@divisor+1,c
   719  001152  0E0A               	movlw	10
   720  001154  6E03               	movwf	___awdiv@divisor,c
   721  001156  EC97  F00C         	call	___awdiv	;wreg free
   722  00115A  5001               	movf	?___awdiv,w,c
   723  00115C  6E42               	movwf	main@U,c
   724                           
   725                           ;Lab5_Test.c: 84: char L = tempF % 10;
   726  00115E  C048  F001         	movff	main@tempF,___awmod@dividend
   727  001162  C049  F002         	movff	main@tempF+1,___awmod@dividend+1
   728  001166  0E00               	movlw	0
   729  001168  6E04               	movwf	___awmod@divisor+1,c
   730  00116A  0E0A               	movlw	10
   731  00116C  6E03               	movwf	___awmod@divisor,c
   732  00116E  ECE2  F00C         	call	___awmod	;wreg free
   733  001172  5001               	movf	?___awmod,w,c
   734  001174  6E43               	movwf	main@L,c
   735                           
   736                           ;Lab5_Test.c: 85: Display_Upper_Digit(U);
   737  001176  5042               	movf	main@U,w,c
   738  001178  EC06  F00E         	call	_Display_Upper_Digit
   739                           
   740                           ;Lab5_Test.c: 86: Display_Lower_Digit(L);
   741  00117C  5043               	movf	main@L,w,c
   742  00117E  EC90  F00E         	call	_Display_Lower_Digit
   743                           
   744                           ;Lab5_Test.c: 87: printf("Temperature = %d F \r\n\n", tempF);
   745  001182  0E0B               	movlw	low STR_1
   746  001184  6E0D               	movwf	printf@f,c
   747  001186  0E10               	movlw	high STR_1
   748  001188  6E0E               	movwf	printf@f+1,c
   749  00118A  C048  F00F         	movff	main@tempF,?_printf+2
   750  00118E  C049  F010         	movff	main@tempF+1,?_printf+3
   751  001192  ECE5  F009         	call	_printf	;wreg free
   752                           
   753                           ;Lab5_Test.c: 88: DO_DISPLAY_D1(tempF);
   754  001196  C048  F001         	movff	main@tempF,DO_DISPLAY_D1@temp
   755  00119A  C049  F002         	movff	main@tempF+1,DO_DISPLAY_D1@temp+1
   756  00119E  EC47  F00C         	call	_DO_DISPLAY_D1	;wreg free
   757                           
   758                           ;Lab5_Test.c: 89: DO_DISPLAY_D2(tempF);
   759  0011A2  C048  F009         	movff	main@tempF,DO_DISPLAY_D2@temp
   760  0011A6  C049  F00A         	movff	main@tempF+1,DO_DISPLAY_D2@temp+1
   761  0011AA  EC89  F00D         	call	_DO_DISPLAY_D2	;wreg free
   762                           
   763                           ;Lab5_Test.c: 91: Select_ADC_Channel(1);
   764  0011AE  0E01               	movlw	1
   765  0011B0  ECB8  F00E         	call	_Select_ADC_Channel
   766                           
   767                           ;Lab5_Test.c: 92: int num_step = Get_Full_ADC();
   768  0011B4  EC59  F00E         	call	_Get_Full_ADC	;wreg free
   769  0011B8  C001  F046         	movff	?_Get_Full_ADC,main@num_step
   770  0011BC  C002  F047         	movff	?_Get_Full_ADC+1,main@num_step+1
   771                           
   772                           ;Lab5_Test.c: 93: int voltage_mv1 = num_step * 4;
   773  0011C0  C046  F037         	movff	main@num_step,??_main
   774  0011C4  C047  F038         	movff	main@num_step+1,??_main+1
   775  0011C8  90D8               	bcf	status,0,c
   776  0011CA  3637               	rlcf	??_main,f,c
   777  0011CC  3638               	rlcf	??_main+1,f,c
   778  0011CE  90D8               	bcf	status,0,c
   779  0011D0  3637               	rlcf	??_main,f,c
   780  0011D2  3638               	rlcf	??_main+1,f,c
   781  0011D4  C037  F044         	movff	??_main,main@voltage_mv1
   782  0011D8  C038  F045         	movff	??_main+1,main@voltage_mv1+1
   783                           
   784                           ;Lab5_Test.c: 94: printf("Light Volt = %d mV \r\n\n", voltage_mv1);
   785  0011DC  0E22               	movlw	low STR_2
   786  0011DE  6E0D               	movwf	printf@f,c
   787  0011E0  0E10               	movlw	high STR_2
   788  0011E2  6E0E               	movwf	printf@f+1,c
   789  0011E4  C044  F00F         	movff	main@voltage_mv1,?_printf+2
   790  0011E8  C045  F010         	movff	main@voltage_mv1+1,?_printf+3
   791  0011EC  ECE5  F009         	call	_printf	;wreg free
   792                           
   793                           ;Lab5_Test.c: 95: DO_DISPLAY_D3(voltage_mv1);
   794  0011F0  C044  F001         	movff	main@voltage_mv1,DO_DISPLAY_D3@voltage
   795  0011F4  C045  F002         	movff	main@voltage_mv1+1,DO_DISPLAY_D3@voltage+1
   796  0011F8  ECB6  F00D         	call	_DO_DISPLAY_D3	;wreg free
   797                           
   798                           ;Lab5_Test.c: 96: WAIT_1_SEC();
   799  0011FC  EC7E  F00E         	call	_WAIT_1_SEC	;wreg free
   800  001200  D727               	goto	l2015
   801  001202  EF00  F000         	goto	start
   802  001206                     __end_of_main:
   803                           	opt stack 0
   804                           tblptru	equ	0xFF8
   805                           tblptrh	equ	0xFF7
   806                           tblptrl	equ	0xFF6
   807                           tablat	equ	0xFF5
   808                           postinc0	equ	0xFEE
   809                           postdec1	equ	0xFE5
   810                           fsr1l	equ	0xFE1
   811                           status	equ	0xFD8
   812                           
   813 ;; *************** function _printf *****************
   814 ;; Defined at:
   815 ;;		line 464 in file "D:\Program Files (x86)\Microchip\xc8\v1.34\sources\common\doprnt.c"
   816 ;; Parameters:    Size  Location     Type
   817 ;;  f               2   12[COMRAM] PTR const unsigned char 
   818 ;;		 -> STR_2(23), STR_1(23), 
   819 ;; Auto vars:     Size  Location     Type
   820 ;;  tmpval          4    0        struct .
   821 ;;  cp              3    0        PTR const unsigned char 
   822 ;;  val             2   21[COMRAM] unsigned int 
   823 ;;  ap              2   17[COMRAM] PTR void [1]
   824 ;;		 -> ?_printf(2), 
   825 ;;  len             2    0        unsigned int 
   826 ;;  c               1   23[COMRAM] char 
   827 ;;  prec            1   20[COMRAM] char 
   828 ;;  flag            1   19[COMRAM] unsigned char 
   829 ;; Return value:  Size  Location     Type
   830 ;;                  2   12[COMRAM] int 
   831 ;; Registers used:
   832 ;;		wreg, fsr2l, fsr2h, status,2, status,0, tblptrl, tblptrh, tblptru, prodl, prodh, cstack
   833 ;; Tracked objects:
   834 ;;		On entry : 0/0
   835 ;;		On exit  : 0/0
   836 ;;		Unchanged: 0/0
   837 ;; Data sizes:     COMRAM   BANK0   BANK1   BANK2   BANK3   BANK4   BANK5   BANK6   BANK7   BANK8   BANK9  BANK10  BANK1
      +1  BANK12  BANK13  BANK14  BANK15
   838 ;;      Params:         4       0       0       0       0       0       0       0       0       0       0       0       
      +0       0       0       0       0
   839 ;;      Locals:         7       0       0       0       0       0       0       0       0       0       0       0       
      +0       0       0       0       0
   840 ;;      Temps:          1       0       0       0       0       0       0       0       0       0       0       0       
      +0       0       0       0       0
   841 ;;      Totals:        12       0       0       0       0       0       0       0       0       0       0       0       
      +0       0       0       0       0
   842 ;;Total ram usage:       12 bytes
   843 ;; Hardware stack levels used:    1
   844 ;; Hardware stack levels required when called:    1
   845 ;; This function calls:
   846 ;;		___lwdiv
   847 ;;		___lwmod
   848 ;;		_putch
   849 ;; This function is called by:
   850 ;;		_main
   851 ;; This function uses a non-reentrant model
   852 ;;
   853                           
   854                           	psect	text1
   855  0013CA                     __ptext1:
   856                           	opt stack 0
   857  0013CA                     _printf:
   858                           	opt stack 29
   859                           
   860                           ;doprnt.c: 466: va_list ap;
   861                           ;doprnt.c: 499: signed char c;
   862                           ;doprnt.c: 506: signed char prec;
   863                           ;doprnt.c: 508: unsigned char flag;
   864                           ;doprnt.c: 523: union {
   865                           ;doprnt.c: 524: unsigned long vd;
   866                           ;doprnt.c: 525: double integ;
   867                           ;doprnt.c: 526: } tmpval;
   868                           ;doprnt.c: 528: unsigned int val;
   869                           ;doprnt.c: 529: unsigned len;
   870                           ;doprnt.c: 530: const char * cp;
   871                           ;doprnt.c: 533: *ap = __va_start();
   872                           
   873                           ;incstack = 0
   874  0013CA  0E0F               	movlw	low (?_printf+2)
   875  0013CC  6E12               	movwf	printf@ap,c
   876  0013CE  0E00               	movlw	high (?_printf+2)
   877  0013D0  6E13               	movwf	printf@ap+1,c
   878                           
   879                           ;doprnt.c: 536: while(c = *f++) {
   880  0013D2  D08B               	goto	l1689
   881  0013D4                     l1643:
   882                           
   883                           ;doprnt.c: 538: if(c != '%')
   884  0013D4  0E25               	movlw	37
   885  0013D6  1818               	xorwf	printf@c,w,c
   886  0013D8  B4D8               	btfsc	status,2,c
   887  0013DA  D004               	goto	l1647
   888                           
   889                           ;doprnt.c: 540: {
   890                           ;doprnt.c: 541: (putch(c) );
   891  0013DC  5018               	movf	printf@c,w,c
   892  0013DE  ECB1  F00E         	call	_putch
   893                           
   894                           ;doprnt.c: 542: continue;
   895  0013E2  D083               	goto	l1689
   896  0013E4                     l1647:
   897                           
   898                           ;doprnt.c: 543: }
   899                           ;doprnt.c: 548: flag = 0;
   900  0013E4  0E00               	movlw	0
   901  0013E6  6E14               	movwf	printf@flag,c
   902                           
   903                           ;doprnt.c: 635: switch(c = *f++) {
   904  0013E8  D004               	goto	l1651
   905                           
   906                           ;doprnt.c: 638: goto alldone;
   907                           
   908                           ;doprnt.c: 637: case 0:
   909  0013EA  D08D               	goto	l200
   910                           
   911                           ;doprnt.c: 698: case 'i':
   912                           ;doprnt.c: 699: break;
   913                           
   914                           ;doprnt.c: 697: case 'd':
   915  0013EC  D015               	goto	l1653
   916                           
   917                           ;doprnt.c: 813: continue;
   918                           
   919                           ;doprnt.c: 802: default:
   920  0013EE  D07D               	goto	l1689
   921                           
   922                           ;doprnt.c: 822: }
   923  0013F0  D013               	goto	l1653
   924  0013F2                     l1651:
   925  0013F2  C00D  FFF6         	movff	printf@f,tblptrl
   926  0013F6  C00E  FFF7         	movff	printf@f+1,tblptrh
   927  0013FA  4A0D               	infsnz	printf@f,f,c
   928  0013FC  2A0E               	incf	printf@f+1,f,c
   929  0013FE                     	if	0	;tblptru may be non-zero
   930  0013FE                     	endif
   931  0013FE                     	if	0	;tblptru may be non-zero
   932  0013FE                     	endif
   933  0013FE  0008               	tblrd		*
   934  001400  CFF5 F018          	movff	tablat,printf@c
   935  001404  5018               	movf	printf@c,w,c
   936                           
   937                           ; Switch size 1, requested type "space"
   938                           ; Number of cases is 3, Range of values is 0 to 105
   939                           ; switch strategies available:
   940                           ; Name         Instructions Cycles
   941                           ; simple_byte           10     6 (average)
   942                           ;	Chosen strategy is simple_byte
   943  001406  0A00               	xorlw	0	; case 0
   944  001408  B4D8               	btfsc	status,2,c
   945  00140A  D07D               	goto	l200
   946  00140C  0A64               	xorlw	100	; case 100
   947  00140E  B4D8               	btfsc	status,2,c
   948  001410  D003               	goto	l1653
   949  001412  0A0D               	xorlw	13	; case 105
   950  001414  A4D8               	btfss	status,2,c
   951  001416  D069               	goto	l1689
   952  001418                     l1653:
   953                           
   954                           ;doprnt.c: 1253: {
   955                           ;doprnt.c: 1259: val = (int)(*(int *)__va_arg((*(int **)ap), (int)0));
   956  001418  C012  FFD9         	movff	printf@ap,fsr2l
   957  00141C  C013  FFDA         	movff	printf@ap+1,fsr2h
   958  001420  CFDE F016          	movff	postinc2,printf@val
   959  001424  CFDD F017          	movff	postdec2,printf@val+1
   960  001428  0E02               	movlw	2
   961  00142A  2612               	addwf	printf@ap,f,c
   962  00142C  0E00               	movlw	0
   963  00142E  2213               	addwfc	printf@ap+1,f,c
   964                           
   965                           ;doprnt.c: 1261: if((int)val < 0) {
   966  001430  AE17               	btfss	printf@val+1,7,c
   967  001432  D007               	goto	l1663
   968                           
   969                           ;doprnt.c: 1262: flag |= 0x03;
   970  001434  0E03               	movlw	3
   971  001436  1214               	iorwf	printf@flag,f,c
   972                           
   973                           ;doprnt.c: 1263: val = -val;
   974  001438  6C16               	negf	printf@val,c
   975  00143A  1E17               	comf	printf@val+1,f,c
   976  00143C  B0D8               	btfsc	status,0,c
   977  00143E  2A17               	incf	printf@val+1,f,c
   978  001440  D000               	goto	l1663
   979  001442                     l1663:
   980                           
   981                           ;doprnt.c: 1264: }
   982                           ;doprnt.c: 1266: }
   983                           ;doprnt.c: 1305: for(c = 1 ; c != sizeof dpowers/sizeof dpowers[0] ; c++)
   984  001442  0E01               	movlw	1
   985  001444  6E18               	movwf	printf@c,c
   986  001446                     l1665:
   987  001446  0E05               	movlw	5
   988  001448  1818               	xorwf	printf@c,w,c
   989  00144A  B4D8               	btfsc	status,2,c
   990  00144C  D016               	goto	l1677
   991  00144E  D001               	goto	l1669
   992  001450  D014               	goto	l1677
   993  001452                     l1669:
   994                           
   995                           ;doprnt.c: 1306: if(val < dpowers[c])
   996  001452  5018               	movf	printf@c,w,c
   997  001454  0D02               	mullw	2
   998  001456  0E01               	movlw	low _dpowers
   999  001458  24F3               	addwf	prodl,w,c
  1000  00145A  6EF6               	movwf	tblptrl,c
  1001  00145C  0E10               	movlw	high _dpowers
  1002  00145E  20F4               	addwfc	prodh,w,c
  1003  001460  6EF7               	movwf	tblptrh,c
  1004  001462                     	if	0	;There are less than 3 active tblptr bytes
  1005  001462                     	endif
  1006  001462  0009               	tblrd		*+
  1007  001464  50F5               	movf	tablat,w,c
  1008  001466  5C16               	subwf	printf@val,w,c
  1009  001468  0009               	tblrd		*+
  1010  00146A  50F5               	movf	tablat,w,c
  1011  00146C  5817               	subwfb	printf@val+1,w,c
  1012  00146E  A0D8               	btfss	status,0,c
  1013  001470  D004               	goto	l1677
  1014  001472  D001               	goto	l1673
  1015                           
  1016                           ;doprnt.c: 1307: break;
  1017  001474  D002               	goto	l1677
  1018  001476                     l1673:
  1019  001476  2A18               	incf	printf@c,f,c
  1020  001478  D7E6               	goto	l1665
  1021  00147A                     l1677:
  1022                           
  1023                           ;doprnt.c: 1422: {
  1024                           ;doprnt.c: 1438: if(flag & 0x03)
  1025  00147A  C014  F011         	movff	printf@flag,??_printf
  1026  00147E  0E03               	movlw	3
  1027  001480  1611               	andwf	??_printf,f,c
  1028  001482  B4D8               	btfsc	status,2,c
  1029  001484  D004               	goto	l1681
  1030                           
  1031                           ;doprnt.c: 1439: (putch('-') );
  1032  001486  0E2D               	movlw	45
  1033  001488  ECB1  F00E         	call	_putch
  1034  00148C  D000               	goto	l1681
  1035  00148E                     l1681:
  1036                           
  1037                           ;doprnt.c: 1469: }
  1038                           ;doprnt.c: 1472: prec = c;
  1039  00148E  C018  F015         	movff	printf@c,printf@prec
  1040                           
  1041                           ;doprnt.c: 1474: while(prec--) {
  1042  001492  D025               	goto	l1687
  1043  001494                     l1683:
  1044                           
  1045                           ;doprnt.c: 1478: {
  1046                           ;doprnt.c: 1489: c = (val / dpowers[prec]) % 10 + '0';
  1047  001494  5015               	movf	printf@prec,w,c
  1048  001496  0D02               	mullw	2
  1049  001498  0E01               	movlw	low _dpowers
  1050  00149A  24F3               	addwf	prodl,w,c
  1051  00149C  6EF6               	movwf	tblptrl,c
  1052  00149E  0E10               	movlw	high _dpowers
  1053  0014A0  20F4               	addwfc	prodh,w,c
  1054  0014A2  6EF7               	movwf	tblptrh,c
  1055  0014A4                     	if	0	;There are less than 3 active tblptr bytes
  1056  0014A4                     	endif
  1057  0014A4  0009               	tblrd		*+
  1058  0014A6  CFF5 F003          	movff	tablat,___lwdiv@divisor
  1059  0014AA  000A               	tblrd		*-
  1060  0014AC  CFF5 F004          	movff	tablat,___lwdiv@divisor+1
  1061  0014B0  C016  F001         	movff	printf@val,___lwdiv@dividend
  1062  0014B4  C017  F002         	movff	printf@val+1,___lwdiv@dividend+1
  1063  0014B8  EC5B  F00D         	call	___lwdiv	;wreg free
  1064  0014BC  C001  F008         	movff	?___lwdiv,___lwmod@dividend
  1065  0014C0  C002  F009         	movff	?___lwdiv+1,___lwmod@dividend+1
  1066  0014C4  0E00               	movlw	0
  1067  0014C6  6E0B               	movwf	___lwmod@divisor+1,c
  1068  0014C8  0E0A               	movlw	10
  1069  0014CA  6E0A               	movwf	___lwmod@divisor,c
  1070  0014CC  ECE0  F00D         	call	___lwmod	;wreg free
  1071  0014D0  5008               	movf	?___lwmod,w,c
  1072  0014D2  0F30               	addlw	48
  1073  0014D4  6E18               	movwf	printf@c,c
  1074                           
  1075                           ;doprnt.c: 1523: }
  1076                           ;doprnt.c: 1524: (putch(c) );
  1077  0014D6  5018               	movf	printf@c,w,c
  1078  0014D8  ECB1  F00E         	call	_putch
  1079  0014DC  D000               	goto	l1687
  1080  0014DE                     l1687:
  1081  0014DE  0615               	decf	printf@prec,f,c
  1082  0014E0  2815               	incf	printf@prec,w,c
  1083  0014E2  B4D8               	btfsc	status,2,c
  1084  0014E4  D002               	goto	l1689
  1085  0014E6  D7D6               	goto	l1683
  1086  0014E8  D000               	goto	l1689
  1087  0014EA                     l1689:
  1088  0014EA  C00D  FFF6         	movff	printf@f,tblptrl
  1089  0014EE  C00E  FFF7         	movff	printf@f+1,tblptrh
  1090  0014F2  4A0D               	infsnz	printf@f,f,c
  1091  0014F4  2A0E               	incf	printf@f+1,f,c
  1092  0014F6                     	if	0	;tblptru may be non-zero
  1093  0014F6                     	endif
  1094  0014F6                     	if	0	;tblptru may be non-zero
  1095  0014F6                     	endif
  1096  0014F6  0008               	tblrd		*
  1097  0014F8  CFF5 F018          	movff	tablat,printf@c
  1098  0014FC  5018               	movf	printf@c,w,c
  1099  0014FE  B4D8               	btfsc	status,2,c
  1100  001500  D002               	goto	l200
  1101  001502  D768               	goto	l1643
  1102  001504  D000               	goto	l200
  1103  001506                     l200:
  1104  001506  0012               	return		;funcret
  1105  001508                     __end_of_printf:
  1106                           	opt stack 0
  1107                           tblptru	equ	0xFF8
  1108                           tblptrh	equ	0xFF7
  1109                           tblptrl	equ	0xFF6
  1110                           tablat	equ	0xFF5
  1111                           prodh	equ	0xFF4
  1112                           prodl	equ	0xFF3
  1113                           postinc0	equ	0xFEE
  1114                           postdec1	equ	0xFE5
  1115                           fsr1l	equ	0xFE1
  1116                           postinc2	equ	0xFDE
  1117                           postdec2	equ	0xFDD
  1118                           fsr2h	equ	0xFDA
  1119                           fsr2l	equ	0xFD9
  1120                           status	equ	0xFD8
  1121                           
  1122 ;; *************** function _putch *****************
  1123 ;; Defined at:
  1124 ;;		line 46 in file "Lab5_Test.c"
  1125 ;; Parameters:    Size  Location     Type
  1126 ;;  c               1    wreg     unsigned char 
  1127 ;; Auto vars:     Size  Location     Type
  1128 ;;  c               1    0[COMRAM] unsigned char 
  1129 ;; Return value:  Size  Location     Type
  1130 ;;		None               void
  1131 ;; Registers used:
  1132 ;;		wreg
  1133 ;; Tracked objects:
  1134 ;;		On entry : 0/0
  1135 ;;		On exit  : 0/0
  1136 ;;		Unchanged: 0/0
  1137 ;; Data sizes:     COMRAM   BANK0   BANK1   BANK2   BANK3   BANK4   BANK5   BANK6   BANK7   BANK8   BANK9  BANK10  BANK1
      +1  BANK12  BANK13  BANK14  BANK15
  1138 ;;      Params:         0       0       0       0       0       0       0       0       0       0       0       0       
      +0       0       0       0       0
  1139 ;;      Locals:         1       0       0       0       0       0       0       0       0       0       0       0       
      +0       0       0       0       0
  1140 ;;      Temps:          0       0       0       0       0       0       0       0       0       0       0       0       
      +0       0       0       0       0
  1141 ;;      Totals:         1       0       0       0       0       0       0       0       0       0       0       0       
      +0       0       0       0       0
  1142 ;;Total ram usage:        1 bytes
  1143 ;; Hardware stack levels used:    1
  1144 ;; This function calls:
  1145 ;;		Nothing
  1146 ;; This function is called by:
  1147 ;;		_printf
  1148 ;; This function uses a non-reentrant model
  1149 ;;
  1150                           
  1151                           	psect	text2
  1152  001D62                     __ptext2:
  1153                           	opt stack 0
  1154  001D62                     _putch:
  1155                           	opt stack 29
  1156                           
  1157                           ;incstack = 0
  1158                           ;putch@c stored from wreg
  1159  001D62  6E01               	movwf	putch@c,c
  1160                           
  1161                           ;Lab5_Test.c: 48: while (!TRMT);TXREG = c;
  1162  001D64  D000               	goto	l82
  1163  001D66                     l82:
  1164  001D66  A2AC               	btfss	4012,1,c	;volatile
  1165  001D68  D7FE               	goto	l82
  1166  001D6A  C001  FFAD         	movff	putch@c,4013	;volatile
  1167  001D6E  0012               	return		;funcret
  1168  001D70                     __end_of_putch:
  1169                           	opt stack 0
  1170                           tblptru	equ	0xFF8
  1171                           tblptrh	equ	0xFF7
  1172                           tblptrl	equ	0xFF6
  1173                           tablat	equ	0xFF5
  1174                           prodh	equ	0xFF4
  1175                           prodl	equ	0xFF3
  1176                           postinc0	equ	0xFEE
  1177                           postdec1	equ	0xFE5
  1178                           fsr1l	equ	0xFE1
  1179                           postinc2	equ	0xFDE
  1180                           postdec2	equ	0xFDD
  1181                           fsr2h	equ	0xFDA
  1182                           fsr2l	equ	0xFD9
  1183                           status	equ	0xFD8
  1184                           
  1185 ;; *************** function ___lwmod *****************
  1186 ;; Defined at:
  1187 ;;		line 8 in file "D:\Program Files (x86)\Microchip\xc8\v1.34\sources\common\lwmod.c"
  1188 ;; Parameters:    Size  Location     Type
  1189 ;;  dividend        2    7[COMRAM] unsigned int 
  1190 ;;  divisor         2    9[COMRAM] unsigned int 
  1191 ;; Auto vars:     Size  Location     Type
  1192 ;;  counter         1   11[COMRAM] unsigned char 
  1193 ;; Return value:  Size  Location     Type
  1194 ;;                  2    7[COMRAM] unsigned int 
  1195 ;; Registers used:
  1196 ;;		wreg, status,2, status,0
  1197 ;; Tracked objects:
  1198 ;;		On entry : 0/0
  1199 ;;		On exit  : 0/0
  1200 ;;		Unchanged: 0/0
  1201 ;; Data sizes:     COMRAM   BANK0   BANK1   BANK2   BANK3   BANK4   BANK5   BANK6   BANK7   BANK8   BANK9  BANK10  BANK1
      +1  BANK12  BANK13  BANK14  BANK15
  1202 ;;      Params:         4       0       0       0       0       0       0       0       0       0       0       0       
      +0       0       0       0       0
  1203 ;;      Locals:         1       0       0       0       0       0       0       0       0       0       0       0       
      +0       0       0       0       0
  1204 ;;      Temps:          0       0       0       0       0       0       0       0       0       0       0       0       
      +0       0       0       0       0
  1205 ;;      Totals:         5       0       0       0       0       0       0       0       0       0       0       0       
      +0       0       0       0       0
  1206 ;;Total ram usage:        5 bytes
  1207 ;; Hardware stack levels used:    1
  1208 ;; This function calls:
  1209 ;;		Nothing
  1210 ;; This function is called by:
  1211 ;;		_printf
  1212 ;; This function uses a non-reentrant model
  1213 ;;
  1214                           
  1215                           	psect	text3
  1216  001BC0                     __ptext3:
  1217                           	opt stack 0
  1218  001BC0                     ___lwmod:
  1219                           	opt stack 29
  1220                           
  1221                           ;incstack = 0
  1222  001BC0  500A               	movf	___lwmod@divisor,w,c
  1223  001BC2  100B               	iorwf	___lwmod@divisor+1,w,c
  1224  001BC4  B4D8               	btfsc	status,2,c
  1225  001BC6  D01D               	goto	l764
  1226  001BC8  0E01               	movlw	1
  1227  001BCA  6E0C               	movwf	___lwmod@counter,c
  1228  001BCC  D005               	goto	l1619
  1229  001BCE                     l1617:
  1230  001BCE  90D8               	bcf	status,0,c
  1231  001BD0  360A               	rlcf	___lwmod@divisor,f,c
  1232  001BD2  360B               	rlcf	___lwmod@divisor+1,f,c
  1233  001BD4  2A0C               	incf	___lwmod@counter,f,c
  1234  001BD6  D000               	goto	l1619
  1235  001BD8                     l1619:
  1236  001BD8  BE0B               	btfsc	___lwmod@divisor+1,7,c
  1237  001BDA  D002               	goto	l1621
  1238  001BDC  D7F8               	goto	l1617
  1239  001BDE  D000               	goto	l1621
  1240  001BE0                     l1621:
  1241  001BE0  500A               	movf	___lwmod@divisor,w,c
  1242  001BE2  5C08               	subwf	___lwmod@dividend,w,c
  1243  001BE4  500B               	movf	___lwmod@divisor+1,w,c
  1244  001BE6  5809               	subwfb	___lwmod@dividend+1,w,c
  1245  001BE8  A0D8               	btfss	status,0,c
  1246  001BEA  D005               	goto	l1625
  1247  001BEC  500A               	movf	___lwmod@divisor,w,c
  1248  001BEE  5E08               	subwf	___lwmod@dividend,f,c
  1249  001BF0  500B               	movf	___lwmod@divisor+1,w,c
  1250  001BF2  5A09               	subwfb	___lwmod@dividend+1,f,c
  1251  001BF4  D000               	goto	l1625
  1252  001BF6                     l1625:
  1253  001BF6  90D8               	bcf	status,0,c
  1254  001BF8  320B               	rrcf	___lwmod@divisor+1,f,c
  1255  001BFA  320A               	rrcf	___lwmod@divisor,f,c
  1256  001BFC  2E0C               	decfsz	___lwmod@counter,f,c
  1257  001BFE  D7F0               	goto	l1621
  1258  001C00  D000               	goto	l764
  1259  001C02                     l764:
  1260  001C02  C008  F008         	movff	___lwmod@dividend,?___lwmod
  1261  001C06  C009  F009         	movff	___lwmod@dividend+1,?___lwmod+1
  1262  001C0A  0012               	return		;funcret
  1263  001C0C                     __end_of___lwmod:
  1264                           	opt stack 0
  1265                           tblptru	equ	0xFF8
  1266                           tblptrh	equ	0xFF7
  1267                           tblptrl	equ	0xFF6
  1268                           tablat	equ	0xFF5
  1269                           prodh	equ	0xFF4
  1270                           prodl	equ	0xFF3
  1271                           postinc0	equ	0xFEE
  1272                           postdec1	equ	0xFE5
  1273                           fsr1l	equ	0xFE1
  1274                           postinc2	equ	0xFDE
  1275                           postdec2	equ	0xFDD
  1276                           fsr2h	equ	0xFDA
  1277                           fsr2l	equ	0xFD9
  1278                           status	equ	0xFD8
  1279                           
  1280 ;; *************** function ___lwdiv *****************
  1281 ;; Defined at:
  1282 ;;		line 8 in file "D:\Program Files (x86)\Microchip\xc8\v1.34\sources\common\lwdiv.c"
  1283 ;; Parameters:    Size  Location     Type
  1284 ;;  dividend        2    0[COMRAM] unsigned int 
  1285 ;;  divisor         2    2[COMRAM] unsigned int 
  1286 ;; Auto vars:     Size  Location     Type
  1287 ;;  quotient        2    4[COMRAM] unsigned int 
  1288 ;;  counter         1    6[COMRAM] unsigned char 
  1289 ;; Return value:  Size  Location     Type
  1290 ;;                  2    0[COMRAM] unsigned int 
  1291 ;; Registers used:
  1292 ;;		wreg, status,2, status,0
  1293 ;; Tracked objects:
  1294 ;;		On entry : 0/0
  1295 ;;		On exit  : 0/0
  1296 ;;		Unchanged: 0/0
  1297 ;; Data sizes:     COMRAM   BANK0   BANK1   BANK2   BANK3   BANK4   BANK5   BANK6   BANK7   BANK8   BANK9  BANK10  BANK1
      +1  BANK12  BANK13  BANK14  BANK15
  1298 ;;      Params:         4       0       0       0       0       0       0       0       0       0       0       0       
      +0       0       0       0       0
  1299 ;;      Locals:         3       0       0       0       0       0       0       0       0       0       0       0       
      +0       0       0       0       0
  1300 ;;      Temps:          0       0       0       0       0       0       0       0       0       0       0       0       
      +0       0       0       0       0
  1301 ;;      Totals:         7       0       0       0       0       0       0       0       0       0       0       0       
      +0       0       0       0       0
  1302 ;;Total ram usage:        7 bytes
  1303 ;; Hardware stack levels used:    1
  1304 ;; This function calls:
  1305 ;;		Nothing
  1306 ;; This function is called by:
  1307 ;;		_printf
  1308 ;; This function uses a non-reentrant model
  1309 ;;
  1310                           
  1311                           	psect	text4
  1312  001AB6                     __ptext4:
  1313                           	opt stack 0
  1314  001AB6                     ___lwdiv:
  1315                           	opt stack 29
  1316                           
  1317                           ;incstack = 0
  1318  001AB6  0E00               	movlw	0
  1319  001AB8  6E06               	movwf	___lwdiv@quotient+1,c
  1320  001ABA  0E00               	movlw	0
  1321  001ABC  6E05               	movwf	___lwdiv@quotient,c
  1322  001ABE  5003               	movf	___lwdiv@divisor,w,c
  1323  001AC0  1004               	iorwf	___lwdiv@divisor+1,w,c
  1324  001AC2  B4D8               	btfsc	status,2,c
  1325  001AC4  D021               	goto	l754
  1326  001AC6  0E01               	movlw	1
  1327  001AC8  6E07               	movwf	___lwdiv@counter,c
  1328  001ACA  D005               	goto	l1599
  1329  001ACC                     l1597:
  1330  001ACC  90D8               	bcf	status,0,c
  1331  001ACE  3603               	rlcf	___lwdiv@divisor,f,c
  1332  001AD0  3604               	rlcf	___lwdiv@divisor+1,f,c
  1333  001AD2  2A07               	incf	___lwdiv@counter,f,c
  1334  001AD4  D000               	goto	l1599
  1335  001AD6                     l1599:
  1336  001AD6  BE04               	btfsc	___lwdiv@divisor+1,7,c
  1337  001AD8  D002               	goto	l1601
  1338  001ADA  D7F8               	goto	l1597
  1339  001ADC  D000               	goto	l1601
  1340  001ADE                     l1601:
  1341  001ADE  90D8               	bcf	status,0,c
  1342  001AE0  3605               	rlcf	___lwdiv@quotient,f,c
  1343  001AE2  3606               	rlcf	___lwdiv@quotient+1,f,c
  1344  001AE4  5003               	movf	___lwdiv@divisor,w,c
  1345  001AE6  5C01               	subwf	___lwdiv@dividend,w,c
  1346  001AE8  5004               	movf	___lwdiv@divisor+1,w,c
  1347  001AEA  5802               	subwfb	___lwdiv@dividend+1,w,c
  1348  001AEC  A0D8               	btfss	status,0,c
  1349  001AEE  D006               	goto	l1609
  1350  001AF0  5003               	movf	___lwdiv@divisor,w,c
  1351  001AF2  5E01               	subwf	___lwdiv@dividend,f,c
  1352  001AF4  5004               	movf	___lwdiv@divisor+1,w,c
  1353  001AF6  5A02               	subwfb	___lwdiv@dividend+1,f,c
  1354  001AF8  8005               	bsf	___lwdiv@quotient,0,c
  1355  001AFA  D000               	goto	l1609
  1356  001AFC                     l1609:
  1357  001AFC  90D8               	bcf	status,0,c
  1358  001AFE  3204               	rrcf	___lwdiv@divisor+1,f,c
  1359  001B00  3203               	rrcf	___lwdiv@divisor,f,c
  1360  001B02  2E07               	decfsz	___lwdiv@counter,f,c
  1361  001B04  D7EC               	goto	l1601
  1362  001B06  D000               	goto	l754
  1363  001B08                     l754:
  1364  001B08  C005  F001         	movff	___lwdiv@quotient,?___lwdiv
  1365  001B0C  C006  F002         	movff	___lwdiv@quotient+1,?___lwdiv+1
  1366  001B10  0012               	return		;funcret
  1367  001B12                     __end_of___lwdiv:
  1368                           	opt stack 0
  1369                           tblptru	equ	0xFF8
  1370                           tblptrh	equ	0xFF7
  1371                           tblptrl	equ	0xFF6
  1372                           tablat	equ	0xFF5
  1373                           prodh	equ	0xFF4
  1374                           prodl	equ	0xFF3
  1375                           postinc0	equ	0xFEE
  1376                           postdec1	equ	0xFE5
  1377                           fsr1l	equ	0xFE1
  1378                           postinc2	equ	0xFDE
  1379                           postdec2	equ	0xFDD
  1380                           fsr2h	equ	0xFDA
  1381                           fsr2l	equ	0xFD9
  1382                           status	equ	0xFD8
  1383                           
  1384 ;; *************** function ___fttol *****************
  1385 ;; Defined at:
  1386 ;;		line 44 in file "D:\Program Files (x86)\Microchip\xc8\v1.34\sources\common\fttol.c"
  1387 ;; Parameters:    Size  Location     Type
  1388 ;;  f1              3    0[COMRAM] float 
  1389 ;; Auto vars:     Size  Location     Type
  1390 ;;  lval            4   10[COMRAM] unsigned long 
  1391 ;;  exp1            1   14[COMRAM] unsigned char 
  1392 ;;  sign1           1    9[COMRAM] unsigned char 
  1393 ;; Return value:  Size  Location     Type
  1394 ;;                  4    0[COMRAM] long 
  1395 ;; Registers used:
  1396 ;;		wreg, status,2, status,0
  1397 ;; Tracked objects:
  1398 ;;		On entry : 0/0
  1399 ;;		On exit  : 0/0
  1400 ;;		Unchanged: 0/0
  1401 ;; Data sizes:     COMRAM   BANK0   BANK1   BANK2   BANK3   BANK4   BANK5   BANK6   BANK7   BANK8   BANK9  BANK10  BANK1
      +1  BANK12  BANK13  BANK14  BANK15
  1402 ;;      Params:         4       0       0       0       0       0       0       0       0       0       0       0       
      +0       0       0       0       0
  1403 ;;      Locals:         6       0       0       0       0       0       0       0       0       0       0       0       
      +0       0       0       0       0
  1404 ;;      Temps:          5       0       0       0       0       0       0       0       0       0       0       0       
      +0       0       0       0       0
  1405 ;;      Totals:        15       0       0       0       0       0       0       0       0       0       0       0       
      +0       0       0       0       0
  1406 ;;Total ram usage:       15 bytes
  1407 ;; Hardware stack levels used:    1
  1408 ;; This function calls:
  1409 ;;		Nothing
  1410 ;; This function is called by:
  1411 ;;		_main
  1412 ;; This function uses a non-reentrant model
  1413 ;;
  1414                           
  1415                           	psect	text5
  1416  001600                     __ptext5:
  1417                           	opt stack 0
  1418  001600                     ___fttol:
  1419                           	opt stack 30
  1420                           
  1421                           ;incstack = 0
  1422  001600  C003  F005         	movff	___fttol@f1+2,??___fttol
  1423  001604  6A06               	clrf	(??___fttol+1)& (0+255),c
  1424  001606  6A07               	clrf	(??___fttol+2)& (0+255),c
  1425  001608  3402               	rlcf	___fttol@f1+1,w,c
  1426  00160A  3605               	rlcf	??___fttol& (0+255),f,c
  1427  00160C  E301               	bnc	u2011
  1428  00160E  8006               	bsf	(??___fttol+1)& (0+255),0,c
  1429  001610                     u2011:
  1430  001610  5005               	movf	??___fttol,w,c
  1431  001612  6E0F               	movwf	___fttol@exp1,c
  1432  001614  500F               	movf	___fttol@exp1,w,c
  1433  001616  A4D8               	btfss	status,2,c
  1434  001618  D002               	goto	l1967
  1435  00161A  D039               	goto	l1991
  1436  00161C  D063               	goto	l652
  1437  00161E                     l1967:
  1438  00161E  0E17               	movlw	23
  1439  001620  6E05               	movwf	??___fttol& (0+255),c
  1440  001622  C001  F006         	movff	___fttol@f1,??___fttol+1
  1441  001626  C002  F007         	movff	___fttol@f1+1,??___fttol+2
  1442  00162A  C003  F008         	movff	___fttol@f1+2,??___fttol+3
  1443  00162E  2805               	incf	??___fttol,w,c
  1444  001630  6E09               	movwf	(??___fttol+4)& (0+255),c
  1445  001632  D004               	goto	u2030
  1446  001634                     u2035:
  1447  001634  90D8               	bcf	status,0,c
  1448  001636  3208               	rrcf	??___fttol+3,f,c
  1449  001638  3207               	rrcf	??___fttol+2,f,c
  1450  00163A  3206               	rrcf	??___fttol+1,f,c
  1451  00163C                     u2030:
  1452  00163C  2E09               	decfsz	(??___fttol+4)& (0+255),f,c
  1453  00163E  D7FA               	goto	u2035
  1454  001640  5006               	movf	??___fttol+1,w,c
  1455  001642  6E0A               	movwf	___fttol@sign1,c
  1456  001644  8E02               	bsf	___fttol@f1+1,7,c
  1457  001646  0EFF               	movlw	255
  1458  001648  1601               	andwf	___fttol@f1,f,c
  1459  00164A  0EFF               	movlw	255
  1460  00164C  1602               	andwf	___fttol@f1+1,f,c
  1461  00164E  0E00               	movlw	0
  1462  001650  1603               	andwf	___fttol@f1+2,f,c
  1463  001652  5001               	movf	___fttol@f1,w,c
  1464  001654  6E0B               	movwf	___fttol@lval,c
  1465  001656  5002               	movf	___fttol@f1+1,w,c
  1466  001658  6E0C               	movwf	___fttol@lval+1,c
  1467  00165A  5003               	movf	___fttol@f1+2,w,c
  1468  00165C  6E0D               	movwf	___fttol@lval+2,c
  1469  00165E  6A0E               	clrf	___fttol@lval+3,c
  1470  001660  0E8E               	movlw	142
  1471  001662  5E0F               	subwf	___fttol@exp1,f,c
  1472  001664  AE0F               	btfss	___fttol@exp1,7,c
  1473  001666  D010               	goto	l1989
  1474  001668  500F               	movf	___fttol@exp1,w,c
  1475  00166A  0A80               	xorlw	128
  1476  00166C  0F8F               	addlw	143
  1477  00166E  B0D8               	btfsc	status,0,c
  1478  001670  D003               	goto	l1985
  1479  001672  D00D               	goto	l1991
  1480  001674  D037               	goto	l652
  1481  001676  D000               	goto	l1985
  1482  001678                     l1985:
  1483  001678  90D8               	bcf	status,0,c
  1484  00167A  320E               	rrcf	___fttol@lval+3,f,c
  1485  00167C  320D               	rrcf	___fttol@lval+2,f,c
  1486  00167E  320C               	rrcf	___fttol@lval+1,f,c
  1487  001680  320B               	rrcf	___fttol@lval,f,c
  1488  001682  3E0F               	incfsz	___fttol@exp1,f,c
  1489  001684  D7F9               	goto	l1985
  1490  001686  D019               	goto	l1999
  1491  001688                     l1989:
  1492  001688  0E17               	movlw	23
  1493  00168A  640F               	cpfsgt	___fttol@exp1,c
  1494  00168C  D011               	goto	l1997
  1495  00168E                     l1991:
  1496  00168E  0E00               	movlw	0
  1497  001690  6E01               	movwf	?___fttol,c
  1498  001692  0E00               	movlw	0
  1499  001694  6E02               	movwf	?___fttol+1,c
  1500  001696  0E00               	movlw	0
  1501  001698  6E03               	movwf	?___fttol+2,c
  1502  00169A  0E00               	movlw	0
  1503  00169C  6E04               	movwf	?___fttol+3,c
  1504  00169E  D022               	goto	l652
  1505  0016A0  D007               	goto	l1997
  1506  0016A2                     l1995:
  1507  0016A2  90D8               	bcf	status,0,c
  1508  0016A4  360B               	rlcf	___fttol@lval,f,c
  1509  0016A6  360C               	rlcf	___fttol@lval+1,f,c
  1510  0016A8  360D               	rlcf	___fttol@lval+2,f,c
  1511  0016AA  360E               	rlcf	___fttol@lval+3,f,c
  1512  0016AC  060F               	decf	___fttol@exp1,f,c
  1513  0016AE  D000               	goto	l1997
  1514  0016B0                     l1997:
  1515  0016B0  500F               	movf	___fttol@exp1,w,c
  1516  0016B2  B4D8               	btfsc	status,2,c
  1517  0016B4  D002               	goto	l1999
  1518  0016B6  D7F5               	goto	l1995
  1519  0016B8  D000               	goto	l1999
  1520  0016BA                     l1999:
  1521  0016BA  500A               	movf	___fttol@sign1,w,c
  1522  0016BC  B4D8               	btfsc	status,2,c
  1523  0016BE  D009               	goto	l2003
  1524  0016C0  1E0E               	comf	___fttol@lval+3,f,c
  1525  0016C2  1E0D               	comf	___fttol@lval+2,f,c
  1526  0016C4  1E0C               	comf	___fttol@lval+1,f,c
  1527  0016C6  6C0B               	negf	___fttol@lval,c
  1528  0016C8  0E00               	movlw	0
  1529  0016CA  220C               	addwfc	___fttol@lval+1,f,c
  1530  0016CC  220D               	addwfc	___fttol@lval+2,f,c
  1531  0016CE  220E               	addwfc	___fttol@lval+3,f,c
  1532  0016D0  D000               	goto	l2003
  1533  0016D2                     l2003:
  1534  0016D2  C00B  F001         	movff	___fttol@lval,?___fttol
  1535  0016D6  C00C  F002         	movff	___fttol@lval+1,?___fttol+1
  1536  0016DA  C00D  F003         	movff	___fttol@lval+2,?___fttol+2
  1537  0016DE  C00E  F004         	movff	___fttol@lval+3,?___fttol+3
  1538  0016E2  D000               	goto	l652
  1539  0016E4                     l652:
  1540  0016E4  0012               	return		;funcret
  1541  0016E6                     __end_of___fttol:
  1542                           	opt stack 0
  1543                           tblptru	equ	0xFF8
  1544                           tblptrh	equ	0xFF7
  1545                           tblptrl	equ	0xFF6
  1546                           tablat	equ	0xFF5
  1547                           prodh	equ	0xFF4
  1548                           prodl	equ	0xFF3
  1549                           postinc0	equ	0xFEE
  1550                           postdec1	equ	0xFE5
  1551                           fsr1l	equ	0xFE1
  1552                           postinc2	equ	0xFDE
  1553                           postdec2	equ	0xFDD
  1554                           fsr2h	equ	0xFDA
  1555                           fsr2l	equ	0xFD9
  1556                           status	equ	0xFD8
  1557                           
  1558 ;; *************** function ___ftneg *****************
  1559 ;; Defined at:
  1560 ;;		line 15 in file "D:\Program Files (x86)\Microchip\xc8\v1.34\sources\common\ftneg.c"
  1561 ;; Parameters:    Size  Location     Type
  1562 ;;  f1              3    0[COMRAM] float 
  1563 ;; Auto vars:     Size  Location     Type
  1564 ;;		None
  1565 ;; Return value:  Size  Location     Type
  1566 ;;                  3    0[COMRAM] float 
  1567 ;; Registers used:
  1568 ;;		wreg, status,2, status,0
  1569 ;; Tracked objects:
  1570 ;;		On entry : 0/0
  1571 ;;		On exit  : 0/0
  1572 ;;		Unchanged: 0/0
  1573 ;; Data sizes:     COMRAM   BANK0   BANK1   BANK2   BANK3   BANK4   BANK5   BANK6   BANK7   BANK8   BANK9  BANK10  BANK1
      +1  BANK12  BANK13  BANK14  BANK15
  1574 ;;      Params:         3       0       0       0       0       0       0       0       0       0       0       0       
      +0       0       0       0       0
  1575 ;;      Locals:         0       0       0       0       0       0       0       0       0       0       0       0       
      +0       0       0       0       0
  1576 ;;      Temps:          0       0       0       0       0       0       0       0       0       0       0       0       
      +0       0       0       0       0
  1577 ;;      Totals:         3       0       0       0       0       0       0       0       0       0       0       0       
      +0       0       0       0       0
  1578 ;;Total ram usage:        3 bytes
  1579 ;; Hardware stack levels used:    1
  1580 ;; This function calls:
  1581 ;;		Nothing
  1582 ;; This function is called by:
  1583 ;;		_main
  1584 ;; This function uses a non-reentrant model
  1585 ;;
  1586                           
  1587                           	psect	text6
  1588  001CD8                     __ptext6:
  1589                           	opt stack 0
  1590  001CD8                     ___ftneg:
  1591                           	opt stack 30
  1592                           
  1593                           ;incstack = 0
  1594  001CD8  5001               	movf	___ftneg@f1,w,c
  1595  001CDA  1002               	iorwf	___ftneg@f1+1,w,c
  1596  001CDC  1003               	iorwf	___ftneg@f1+2,w,c
  1597  001CDE  B4D8               	btfsc	status,2,c
  1598  001CE0  D006               	goto	l641
  1599  001CE2  0E00               	movlw	0
  1600  001CE4  1A01               	xorwf	___ftneg@f1,f,c
  1601  001CE6  0E00               	movlw	0
  1602  001CE8  1A02               	xorwf	___ftneg@f1+1,f,c
  1603  001CEA  0E80               	movlw	128
  1604  001CEC  1A03               	xorwf	___ftneg@f1+2,f,c
  1605  001CEE                     l641:
  1606  001CEE  C001  F001         	movff	___ftneg@f1,?___ftneg
  1607  001CF2  C002  F002         	movff	___ftneg@f1+1,?___ftneg+1
  1608  001CF6  C003  F003         	movff	___ftneg@f1+2,?___ftneg+2
  1609  001CFA  0012               	return		;funcret
  1610  001CFC                     __end_of___ftneg:
  1611                           	opt stack 0
  1612                           tblptru	equ	0xFF8
  1613                           tblptrh	equ	0xFF7
  1614                           tblptrl	equ	0xFF6
  1615                           tablat	equ	0xFF5
  1616                           prodh	equ	0xFF4
  1617                           prodl	equ	0xFF3
  1618                           postinc0	equ	0xFEE
  1619                           postdec1	equ	0xFE5
  1620                           fsr1l	equ	0xFE1
  1621                           postinc2	equ	0xFDE
  1622                           postdec2	equ	0xFDD
  1623                           fsr2h	equ	0xFDA
  1624                           fsr2l	equ	0xFD9
  1625                           status	equ	0xFD8
  1626                           
  1627 ;; *************** function ___ftmul *****************
  1628 ;; Defined at:
  1629 ;;		line 62 in file "D:\Program Files (x86)\Microchip\xc8\v1.34\sources\common\ftmul.c"
  1630 ;; Parameters:    Size  Location     Type
  1631 ;;  f1              3   12[COMRAM] float 
  1632 ;;  f2              3   15[COMRAM] float 
  1633 ;; Auto vars:     Size  Location     Type
  1634 ;;  f3_as_produc    3   22[COMRAM] unsigned um
  1635 ;;  sign            1   26[COMRAM] unsigned char 
  1636 ;;  cntr            1   25[COMRAM] unsigned char 
  1637 ;;  exp             1   21[COMRAM] unsigned char 
  1638 ;; Return value:  Size  Location     Type
  1639 ;;                  3   12[COMRAM] float 
  1640 ;; Registers used:
  1641 ;;		wreg, status,2, status,0, cstack
  1642 ;; Tracked objects:
  1643 ;;		On entry : 0/0
  1644 ;;		On exit  : 0/0
  1645 ;;		Unchanged: 0/0
  1646 ;; Data sizes:     COMRAM   BANK0   BANK1   BANK2   BANK3   BANK4   BANK5   BANK6   BANK7   BANK8   BANK9  BANK10  BANK1
      +1  BANK12  BANK13  BANK14  BANK15
  1647 ;;      Params:         6       0       0       0       0       0       0       0       0       0       0       0       
      +0       0       0       0       0
  1648 ;;      Locals:         6       0       0       0       0       0       0       0       0       0       0       0       
      +0       0       0       0       0
  1649 ;;      Temps:          3       0       0       0       0       0       0       0       0       0       0       0       
      +0       0       0       0       0
  1650 ;;      Totals:        15       0       0       0       0       0       0       0       0       0       0       0       
      +0       0       0       0       0
  1651 ;;Total ram usage:       15 bytes
  1652 ;; Hardware stack levels used:    1
  1653 ;; Hardware stack levels required when called:    1
  1654 ;; This function calls:
  1655 ;;		___ftpack
  1656 ;; This function is called by:
  1657 ;;		_main
  1658 ;; This function uses a non-reentrant model
  1659 ;;
  1660                           
  1661                           	psect	text7
  1662  001508                     __ptext7:
  1663                           	opt stack 0
  1664  001508                     ___ftmul:
  1665                           	opt stack 29
  1666                           
  1667                           ;incstack = 0
  1668  001508  C00F  F013         	movff	___ftmul@f1+2,??___ftmul
  1669  00150C  6A14               	clrf	(??___ftmul+1)& (0+255),c
  1670  00150E  6A15               	clrf	(??___ftmul+2)& (0+255),c
  1671  001510  340E               	rlcf	___ftmul@f1+1,w,c
  1672  001512  3613               	rlcf	??___ftmul& (0+255),f,c
  1673  001514  E301               	bnc	u1871
  1674  001516  8014               	bsf	(??___ftmul+1)& (0+255),0,c
  1675  001518                     u1871:
  1676  001518  5013               	movf	??___ftmul,w,c
  1677  00151A  6E16               	movwf	___ftmul@exp,c
  1678  00151C  5016               	movf	___ftmul@exp,w,c
  1679  00151E  A4D8               	btfss	status,2,c
  1680  001520  D002               	goto	l1867
  1681  001522  D00E               	goto	l1869
  1682  001524  D06C               	goto	l631
  1683  001526                     l1867:
  1684  001526  C012  F013         	movff	___ftmul@f2+2,??___ftmul
  1685  00152A  6A14               	clrf	(??___ftmul+1)& (0+255),c
  1686  00152C  6A15               	clrf	(??___ftmul+2)& (0+255),c
  1687  00152E  3411               	rlcf	___ftmul@f2+1,w,c
  1688  001530  3613               	rlcf	??___ftmul& (0+255),f,c
  1689  001532  E301               	bnc	u1891
  1690  001534  8014               	bsf	(??___ftmul+1)& (0+255),0,c
  1691  001536                     u1891:
  1692  001536  5013               	movf	??___ftmul,w,c
  1693  001538  6E1B               	movwf	___ftmul@sign,c
  1694  00153A  501B               	movf	___ftmul@sign,w,c
  1695  00153C  A4D8               	btfss	status,2,c
  1696  00153E  D007               	goto	l1873
  1697  001540                     l1869:
  1698  001540  0E00               	movlw	0
  1699  001542  6E0D               	movwf	?___ftmul,c
  1700  001544  0E00               	movlw	0
  1701  001546  6E0E               	movwf	?___ftmul+1,c
  1702  001548  0E00               	movlw	0
  1703  00154A  6E0F               	movwf	?___ftmul+2,c
  1704  00154C  D058               	goto	l631
  1705  00154E                     l1873:
  1706  00154E  501B               	movf	___ftmul@sign,w,c
  1707  001550  0F7B               	addlw	123
  1708  001552  2616               	addwf	___ftmul@exp,f,c
  1709  001554  C00F  F01B         	movff	___ftmul@f1+2,___ftmul@sign
  1710  001558  5012               	movf	___ftmul@f2+2,w,c
  1711  00155A  1A1B               	xorwf	___ftmul@sign,f,c
  1712  00155C  0E80               	movlw	128
  1713  00155E  161B               	andwf	___ftmul@sign,f,c
  1714  001560  8E0E               	bsf	___ftmul@f1+1,7,c
  1715  001562  8E11               	bsf	___ftmul@f2+1,7,c
  1716  001564  0EFF               	movlw	255
  1717  001566  1610               	andwf	___ftmul@f2,f,c
  1718  001568  0EFF               	movlw	255
  1719  00156A  1611               	andwf	___ftmul@f2+1,f,c
  1720  00156C  0E00               	movlw	0
  1721  00156E  1612               	andwf	___ftmul@f2+2,f,c
  1722  001570  0E00               	movlw	0
  1723  001572  6E17               	movwf	___ftmul@f3_as_product,c
  1724  001574  0E00               	movlw	0
  1725  001576  6E18               	movwf	___ftmul@f3_as_product+1,c
  1726  001578  0E00               	movlw	0
  1727  00157A  6E19               	movwf	___ftmul@f3_as_product+2,c
  1728  00157C  0E07               	movlw	7
  1729  00157E  6E1A               	movwf	___ftmul@cntr,c
  1730  001580  D000               	goto	l1887
  1731  001582                     l1887:
  1732  001582  A00D               	btfss	___ftmul@f1,0,c
  1733  001584  D007               	goto	l1891
  1734  001586  5010               	movf	___ftmul@f2,w,c
  1735  001588  2617               	addwf	___ftmul@f3_as_product,f,c
  1736  00158A  5011               	movf	___ftmul@f2+1,w,c
  1737  00158C  2218               	addwfc	___ftmul@f3_as_product+1,f,c
  1738  00158E  5012               	movf	___ftmul@f2+2,w,c
  1739  001590  2219               	addwfc	___ftmul@f3_as_product+2,f,c
  1740  001592  D000               	goto	l1891
  1741  001594                     l1891:
  1742  001594  90D8               	bcf	status,0,c
  1743  001596  320F               	rrcf	___ftmul@f1+2,f,c
  1744  001598  320E               	rrcf	___ftmul@f1+1,f,c
  1745  00159A  320D               	rrcf	___ftmul@f1,f,c
  1746  00159C  90D8               	bcf	status,0,c
  1747  00159E  3610               	rlcf	___ftmul@f2,f,c
  1748  0015A0  3611               	rlcf	___ftmul@f2+1,f,c
  1749  0015A2  3612               	rlcf	___ftmul@f2+2,f,c
  1750  0015A4  2E1A               	decfsz	___ftmul@cntr,f,c
  1751  0015A6  D7ED               	goto	l1887
  1752  0015A8  D000               	goto	l1895
  1753  0015AA                     l1895:
  1754  0015AA  0E09               	movlw	9
  1755  0015AC  6E1A               	movwf	___ftmul@cntr,c
  1756  0015AE  D000               	goto	l1897
  1757  0015B0                     l1897:
  1758  0015B0  A00D               	btfss	___ftmul@f1,0,c
  1759  0015B2  D007               	goto	l1901
  1760  0015B4  5010               	movf	___ftmul@f2,w,c
  1761  0015B6  2617               	addwf	___ftmul@f3_as_product,f,c
  1762  0015B8  5011               	movf	___ftmul@f2+1,w,c
  1763  0015BA  2218               	addwfc	___ftmul@f3_as_product+1,f,c
  1764  0015BC  5012               	movf	___ftmul@f2+2,w,c
  1765  0015BE  2219               	addwfc	___ftmul@f3_as_product+2,f,c
  1766  0015C0  D000               	goto	l1901
  1767  0015C2                     l1901:
  1768  0015C2  90D8               	bcf	status,0,c
  1769  0015C4  320F               	rrcf	___ftmul@f1+2,f,c
  1770  0015C6  320E               	rrcf	___ftmul@f1+1,f,c
  1771  0015C8  320D               	rrcf	___ftmul@f1,f,c
  1772  0015CA  90D8               	bcf	status,0,c
  1773  0015CC  3219               	rrcf	___ftmul@f3_as_product+2,f,c
  1774  0015CE  3218               	rrcf	___ftmul@f3_as_product+1,f,c
  1775  0015D0  3217               	rrcf	___ftmul@f3_as_product,f,c
  1776  0015D2  2E1A               	decfsz	___ftmul@cntr,f,c
  1777  0015D4  D7ED               	goto	l1897
  1778  0015D6  D000               	goto	l1905
  1779  0015D8                     l1905:
  1780  0015D8  C017  F001         	movff	___ftmul@f3_as_product,___ftpack@arg
  1781  0015DC  C018  F002         	movff	___ftmul@f3_as_product+1,___ftpack@arg+1
  1782  0015E0  C019  F003         	movff	___ftmul@f3_as_product+2,___ftpack@arg+2
  1783  0015E4  C016  F004         	movff	___ftmul@exp,___ftpack@exp
  1784  0015E8  C01B  F005         	movff	___ftmul@sign,___ftpack@sign
  1785  0015EC  ECE4  F00B         	call	___ftpack	;wreg free
  1786  0015F0  C001  F00D         	movff	?___ftpack,?___ftmul
  1787  0015F4  C002  F00E         	movff	?___ftpack+1,?___ftmul+1
  1788  0015F8  C003  F00F         	movff	?___ftpack+2,?___ftmul+2
  1789  0015FC  D000               	goto	l631
  1790  0015FE                     l631:
  1791  0015FE  0012               	return		;funcret
  1792  001600                     __end_of___ftmul:
  1793                           	opt stack 0
  1794                           tblptru	equ	0xFF8
  1795                           tblptrh	equ	0xFF7
  1796                           tblptrl	equ	0xFF6
  1797                           tablat	equ	0xFF5
  1798                           prodh	equ	0xFF4
  1799                           prodl	equ	0xFF3
  1800                           postinc0	equ	0xFEE
  1801                           postdec1	equ	0xFE5
  1802                           fsr1l	equ	0xFE1
  1803                           postinc2	equ	0xFDE
  1804                           postdec2	equ	0xFDD
  1805                           fsr2h	equ	0xFDA
  1806                           fsr2l	equ	0xFD9
  1807                           status	equ	0xFD8
  1808                           
  1809 ;; *************** function ___ftdiv *****************
  1810 ;; Defined at:
  1811 ;;		line 54 in file "D:\Program Files (x86)\Microchip\xc8\v1.34\sources\common\ftdiv.c"
  1812 ;; Parameters:    Size  Location     Type
  1813 ;;  f1              3   39[COMRAM] float 
  1814 ;;  f2              3   42[COMRAM] float 
  1815 ;; Auto vars:     Size  Location     Type
  1816 ;;  f3              3   49[COMRAM] float 
  1817 ;;  sign            1   53[COMRAM] unsigned char 
  1818 ;;  exp             1   52[COMRAM] unsigned char 
  1819 ;;  cntr            1   48[COMRAM] unsigned char 
  1820 ;; Return value:  Size  Location     Type
  1821 ;;                  3   39[COMRAM] float 
  1822 ;; Registers used:
  1823 ;;		wreg, status,2, status,0, cstack
  1824 ;; Tracked objects:
  1825 ;;		On entry : 0/0
  1826 ;;		On exit  : 0/0
  1827 ;;		Unchanged: 0/0
  1828 ;; Data sizes:     COMRAM   BANK0   BANK1   BANK2   BANK3   BANK4   BANK5   BANK6   BANK7   BANK8   BANK9  BANK10  BANK1
      +1  BANK12  BANK13  BANK14  BANK15
  1829 ;;      Params:         6       0       0       0       0       0       0       0       0       0       0       0       
      +0       0       0       0       0
  1830 ;;      Locals:         6       0       0       0       0       0       0       0       0       0       0       0       
      +0       0       0       0       0
  1831 ;;      Temps:          3       0       0       0       0       0       0       0       0       0       0       0       
      +0       0       0       0       0
  1832 ;;      Totals:        15       0       0       0       0       0       0       0       0       0       0       0       
      +0       0       0       0       0
  1833 ;;Total ram usage:       15 bytes
  1834 ;; Hardware stack levels used:    1
  1835 ;; Hardware stack levels required when called:    1
  1836 ;; This function calls:
  1837 ;;		___ftpack
  1838 ;; This function is called by:
  1839 ;;		_main
  1840 ;; This function uses a non-reentrant model
  1841 ;;
  1842                           
  1843                           	psect	text8
  1844  0016E6                     __ptext8:
  1845                           	opt stack 0
  1846  0016E6                     ___ftdiv:
  1847                           	opt stack 29
  1848                           
  1849                           ;incstack = 0
  1850  0016E6  C02A  F02E         	movff	___ftdiv@f1+2,??___ftdiv
  1851  0016EA  6A2F               	clrf	(??___ftdiv+1)& (0+255),c
  1852  0016EC  6A30               	clrf	(??___ftdiv+2)& (0+255),c
  1853  0016EE  3429               	rlcf	___ftdiv@f1+1,w,c
  1854  0016F0  362E               	rlcf	??___ftdiv& (0+255),f,c
  1855  0016F2  E301               	bnc	u1821
  1856  0016F4  802F               	bsf	(??___ftdiv+1)& (0+255),0,c
  1857  0016F6                     u1821:
  1858  0016F6  502E               	movf	??___ftdiv,w,c
  1859  0016F8  6E35               	movwf	___ftdiv@exp,c
  1860  0016FA  5035               	movf	___ftdiv@exp,w,c
  1861  0016FC  A4D8               	btfss	status,2,c
  1862  0016FE  D002               	goto	l1821
  1863  001700  D00E               	goto	l1823
  1864  001702  D061               	goto	l616
  1865  001704                     l1821:
  1866  001704  C02D  F02E         	movff	___ftdiv@f2+2,??___ftdiv
  1867  001708  6A2F               	clrf	(??___ftdiv+1)& (0+255),c
  1868  00170A  6A30               	clrf	(??___ftdiv+2)& (0+255),c
  1869  00170C  342C               	rlcf	___ftdiv@f2+1,w,c
  1870  00170E  362E               	rlcf	??___ftdiv& (0+255),f,c
  1871  001710  E301               	bnc	u1841
  1872  001712  802F               	bsf	(??___ftdiv+1)& (0+255),0,c
  1873  001714                     u1841:
  1874  001714  502E               	movf	??___ftdiv,w,c
  1875  001716  6E36               	movwf	___ftdiv@sign,c
  1876  001718  5036               	movf	___ftdiv@sign,w,c
  1877  00171A  A4D8               	btfss	status,2,c
  1878  00171C  D007               	goto	l1827
  1879  00171E                     l1823:
  1880  00171E  0E00               	movlw	0
  1881  001720  6E28               	movwf	?___ftdiv,c
  1882  001722  0E00               	movlw	0
  1883  001724  6E29               	movwf	?___ftdiv+1,c
  1884  001726  0E00               	movlw	0
  1885  001728  6E2A               	movwf	?___ftdiv+2,c
  1886  00172A  D04D               	goto	l616
  1887  00172C                     l1827:
  1888  00172C  0E00               	movlw	0
  1889  00172E  6E32               	movwf	___ftdiv@f3,c
  1890  001730  0E00               	movlw	0
  1891  001732  6E33               	movwf	___ftdiv@f3+1,c
  1892  001734  0E00               	movlw	0
  1893  001736  6E34               	movwf	___ftdiv@f3+2,c
  1894  001738  5036               	movf	___ftdiv@sign,w,c
  1895  00173A  0F89               	addlw	137
  1896  00173C  5E35               	subwf	___ftdiv@exp,f,c
  1897  00173E  C02A  F036         	movff	___ftdiv@f1+2,___ftdiv@sign
  1898  001742  502D               	movf	___ftdiv@f2+2,w,c
  1899  001744  1A36               	xorwf	___ftdiv@sign,f,c
  1900  001746  0E80               	movlw	128
  1901  001748  1636               	andwf	___ftdiv@sign,f,c
  1902  00174A  8E29               	bsf	___ftdiv@f1+1,7,c
  1903  00174C  0EFF               	movlw	255
  1904  00174E  1628               	andwf	___ftdiv@f1,f,c
  1905  001750  0EFF               	movlw	255
  1906  001752  1629               	andwf	___ftdiv@f1+1,f,c
  1907  001754  0E00               	movlw	0
  1908  001756  162A               	andwf	___ftdiv@f1+2,f,c
  1909  001758  8E2C               	bsf	___ftdiv@f2+1,7,c
  1910  00175A  0EFF               	movlw	255
  1911  00175C  162B               	andwf	___ftdiv@f2,f,c
  1912  00175E  0EFF               	movlw	255
  1913  001760  162C               	andwf	___ftdiv@f2+1,f,c
  1914  001762  0E00               	movlw	0
  1915  001764  162D               	andwf	___ftdiv@f2+2,f,c
  1916  001766  0E18               	movlw	24
  1917  001768  6E31               	movwf	___ftdiv@cntr,c
  1918  00176A  D000               	goto	l1847
  1919  00176C                     l1847:
  1920  00176C  90D8               	bcf	status,0,c
  1921  00176E  3632               	rlcf	___ftdiv@f3,f,c
  1922  001770  3633               	rlcf	___ftdiv@f3+1,f,c
  1923  001772  3634               	rlcf	___ftdiv@f3+2,f,c
  1924  001774  502B               	movf	___ftdiv@f2,w,c
  1925  001776  5C28               	subwf	___ftdiv@f1,w,c
  1926  001778  502C               	movf	___ftdiv@f2+1,w,c
  1927  00177A  5829               	subwfb	___ftdiv@f1+1,w,c
  1928  00177C  502D               	movf	___ftdiv@f2+2,w,c
  1929  00177E  582A               	subwfb	___ftdiv@f1+2,w,c
  1930  001780  A0D8               	btfss	status,0,c
  1931  001782  D007               	goto	l619
  1932  001784  502B               	movf	___ftdiv@f2,w,c
  1933  001786  5E28               	subwf	___ftdiv@f1,f,c
  1934  001788  502C               	movf	___ftdiv@f2+1,w,c
  1935  00178A  5A29               	subwfb	___ftdiv@f1+1,f,c
  1936  00178C  502D               	movf	___ftdiv@f2+2,w,c
  1937  00178E  5A2A               	subwfb	___ftdiv@f1+2,f,c
  1938  001790  8032               	bsf	___ftdiv@f3,0,c
  1939  001792                     l619:
  1940  001792  90D8               	bcf	status,0,c
  1941  001794  3628               	rlcf	___ftdiv@f1,f,c
  1942  001796  3629               	rlcf	___ftdiv@f1+1,f,c
  1943  001798  362A               	rlcf	___ftdiv@f1+2,f,c
  1944  00179A  2E31               	decfsz	___ftdiv@cntr,f,c
  1945  00179C  D7E7               	goto	l1847
  1946  00179E  D000               	goto	l1857
  1947  0017A0                     l1857:
  1948  0017A0  C032  F001         	movff	___ftdiv@f3,___ftpack@arg
  1949  0017A4  C033  F002         	movff	___ftdiv@f3+1,___ftpack@arg+1
  1950  0017A8  C034  F003         	movff	___ftdiv@f3+2,___ftpack@arg+2
  1951  0017AC  C035  F004         	movff	___ftdiv@exp,___ftpack@exp
  1952  0017B0  C036  F005         	movff	___ftdiv@sign,___ftpack@sign
  1953  0017B4  ECE4  F00B         	call	___ftpack	;wreg free
  1954  0017B8  C001  F028         	movff	?___ftpack,?___ftdiv
  1955  0017BC  C002  F029         	movff	?___ftpack+1,?___ftdiv+1
  1956  0017C0  C003  F02A         	movff	?___ftpack+2,?___ftdiv+2
  1957  0017C4  D000               	goto	l616
  1958  0017C6                     l616:
  1959  0017C6  0012               	return		;funcret
  1960  0017C8                     __end_of___ftdiv:
  1961                           	opt stack 0
  1962                           tblptru	equ	0xFF8
  1963                           tblptrh	equ	0xFF7
  1964                           tblptrl	equ	0xFF6
  1965                           tablat	equ	0xFF5
  1966                           prodh	equ	0xFF4
  1967                           prodl	equ	0xFF3
  1968                           postinc0	equ	0xFEE
  1969                           postdec1	equ	0xFE5
  1970                           fsr1l	equ	0xFE1
  1971                           postinc2	equ	0xFDE
  1972                           postdec2	equ	0xFDD
  1973                           fsr2h	equ	0xFDA
  1974                           fsr2l	equ	0xFD9
  1975                           status	equ	0xFD8
  1976                           
  1977 ;; *************** function ___ftadd *****************
  1978 ;; Defined at:
  1979 ;;		line 86 in file "D:\Program Files (x86)\Microchip\xc8\v1.34\sources\common\ftadd.c"
  1980 ;; Parameters:    Size  Location     Type
  1981 ;;  f1              3   27[COMRAM] float 
  1982 ;;  f2              3   30[COMRAM] float 
  1983 ;; Auto vars:     Size  Location     Type
  1984 ;;  exp1            1   38[COMRAM] unsigned char 
  1985 ;;  exp2            1   37[COMRAM] unsigned char 
  1986 ;;  sign            1   36[COMRAM] unsigned char 
  1987 ;; Return value:  Size  Location     Type
  1988 ;;                  3   27[COMRAM] float 
  1989 ;; Registers used:
  1990 ;;		wreg, status,2, status,0, cstack
  1991 ;; Tracked objects:
  1992 ;;		On entry : 0/0
  1993 ;;		On exit  : 0/0
  1994 ;;		Unchanged: 0/0
  1995 ;; Data sizes:     COMRAM   BANK0   BANK1   BANK2   BANK3   BANK4   BANK5   BANK6   BANK7   BANK8   BANK9  BANK10  BANK1
      +1  BANK12  BANK13  BANK14  BANK15
  1996 ;;      Params:         6       0       0       0       0       0       0       0       0       0       0       0       
      +0       0       0       0       0
  1997 ;;      Locals:         3       0       0       0       0       0       0       0       0       0       0       0       
      +0       0       0       0       0
  1998 ;;      Temps:          3       0       0       0       0       0       0       0       0       0       0       0       
      +0       0       0       0       0
  1999 ;;      Totals:        12       0       0       0       0       0       0       0       0       0       0       0       
      +0       0       0       0       0
  2000 ;;Total ram usage:       12 bytes
  2001 ;; Hardware stack levels used:    1
  2002 ;; Hardware stack levels required when called:    1
  2003 ;; This function calls:
  2004 ;;		___ftpack
  2005 ;; This function is called by:
  2006 ;;		_main
  2007 ;; This function uses a non-reentrant model
  2008 ;;
  2009                           
  2010                           	psect	text9
  2011  001206                     __ptext9:
  2012                           	opt stack 0
  2013  001206                     ___ftadd:
  2014                           	opt stack 29
  2015                           
  2016                           ;incstack = 0
  2017  001206  C01E  F022         	movff	___ftadd@f1+2,??___ftadd
  2018  00120A  6A23               	clrf	(??___ftadd+1)& (0+255),c
  2019  00120C  6A24               	clrf	(??___ftadd+2)& (0+255),c
  2020  00120E  341D               	rlcf	___ftadd@f1+1,w,c
  2021  001210  3622               	rlcf	??___ftadd& (0+255),f,c
  2022  001212  E301               	bnc	u1611
  2023  001214  8023               	bsf	(??___ftadd+1)& (0+255),0,c
  2024  001216                     u1611:
  2025  001216  5022               	movf	??___ftadd,w,c
  2026  001218  6E27               	movwf	___ftadd@exp1,c
  2027  00121A  C021  F022         	movff	___ftadd@f2+2,??___ftadd
  2028  00121E  6A23               	clrf	(??___ftadd+1)& (0+255),c
  2029  001220  6A24               	clrf	(??___ftadd+2)& (0+255),c
  2030  001222  3420               	rlcf	___ftadd@f2+1,w,c
  2031  001224  3622               	rlcf	??___ftadd& (0+255),f,c
  2032  001226  E301               	bnc	u1621
  2033  001228  8023               	bsf	(??___ftadd+1)& (0+255),0,c
  2034  00122A                     u1621:
  2035  00122A  5022               	movf	??___ftadd,w,c
  2036  00122C  6E26               	movwf	___ftadd@exp2,c
  2037  00122E  5027               	movf	___ftadd@exp1,w,c
  2038  001230  B4D8               	btfsc	status,2,c
  2039  001232  D00B               	goto	l584
  2040  001234  5026               	movf	___ftadd@exp2,w,c
  2041  001236  5C27               	subwf	___ftadd@exp1,w,c
  2042  001238  B0D8               	btfsc	status,0,c
  2043  00123A  D00E               	goto	l1753
  2044  00123C  5027               	movf	___ftadd@exp1,w,c
  2045  00123E  0800               	sublw	0
  2046  001240  2426               	addwf	___ftadd@exp2,w,c
  2047  001242  6E22               	movwf	??___ftadd& (0+255),c
  2048  001244  0E18               	movlw	24
  2049  001246  6422               	cpfsgt	??___ftadd,c
  2050  001248  D007               	goto	l1753
  2051  00124A                     l584:
  2052  00124A  C01F  F01C         	movff	___ftadd@f2,?___ftadd
  2053  00124E  C020  F01D         	movff	___ftadd@f2+1,?___ftadd+1
  2054  001252  C021  F01E         	movff	___ftadd@f2+2,?___ftadd+2
  2055  001256  D0B8               	goto	l585
  2056  001258                     l1753:
  2057  001258  5026               	movf	___ftadd@exp2,w,c
  2058  00125A  B4D8               	btfsc	status,2,c
  2059  00125C  D00B               	goto	l588
  2060  00125E  5027               	movf	___ftadd@exp1,w,c
  2061  001260  5C26               	subwf	___ftadd@exp2,w,c
  2062  001262  B0D8               	btfsc	status,0,c
  2063  001264  D00E               	goto	l1759
  2064  001266  5026               	movf	___ftadd@exp2,w,c
  2065  001268  0800               	sublw	0
  2066  00126A  2427               	addwf	___ftadd@exp1,w,c
  2067  00126C  6E22               	movwf	??___ftadd& (0+255),c
  2068  00126E  0E18               	movlw	24
  2069  001270  6422               	cpfsgt	??___ftadd,c
  2070  001272  D007               	goto	l1759
  2071  001274                     l588:
  2072  001274  C01C  F01C         	movff	___ftadd@f1,?___ftadd
  2073  001278  C01D  F01D         	movff	___ftadd@f1+1,?___ftadd+1
  2074  00127C  C01E  F01E         	movff	___ftadd@f1+2,?___ftadd+2
  2075  001280  D0A3               	goto	l585
  2076  001282                     l1759:
  2077  001282  0E06               	movlw	6
  2078  001284  6E25               	movwf	___ftadd@sign,c
  2079  001286  AE1E               	btfss	___ftadd@f1+2,7,c
  2080  001288  D002               	goto	l1765
  2081  00128A  8E25               	bsf	___ftadd@sign,7,c
  2082  00128C  D000               	goto	l1765
  2083  00128E                     l1765:
  2084  00128E  BE21               	btfsc	___ftadd@f2+2,7,c
  2085  001290  8C25               	bsf	___ftadd@sign,6,c
  2086  001292  8E1D               	bsf	___ftadd@f1+1,7,c
  2087  001294  0EFF               	movlw	255
  2088  001296  161C               	andwf	___ftadd@f1,f,c
  2089  001298  0EFF               	movlw	255
  2090  00129A  161D               	andwf	___ftadd@f1+1,f,c
  2091  00129C  0E00               	movlw	0
  2092  00129E  161E               	andwf	___ftadd@f1+2,f,c
  2093  0012A0  8E20               	bsf	___ftadd@f2+1,7,c
  2094  0012A2  0EFF               	movlw	255
  2095  0012A4  161F               	andwf	___ftadd@f2,f,c
  2096  0012A6  0EFF               	movlw	255
  2097  0012A8  1620               	andwf	___ftadd@f2+1,f,c
  2098  0012AA  0E00               	movlw	0
  2099  0012AC  1621               	andwf	___ftadd@f2+2,f,c
  2100  0012AE  5026               	movf	___ftadd@exp2,w,c
  2101  0012B0  5C27               	subwf	___ftadd@exp1,w,c
  2102  0012B2  B0D8               	btfsc	status,0,c
  2103  0012B4  D01E               	goto	l1785
  2104  0012B6                     l1775:
  2105  0012B6  90D8               	bcf	status,0,c
  2106  0012B8  361F               	rlcf	___ftadd@f2,f,c
  2107  0012BA  3620               	rlcf	___ftadd@f2+1,f,c
  2108  0012BC  3621               	rlcf	___ftadd@f2+2,f,c
  2109  0012BE  0626               	decf	___ftadd@exp2,f,c
  2110  0012C0  5027               	movf	___ftadd@exp1,w,c
  2111  0012C2  1826               	xorwf	___ftadd@exp2,w,c
  2112  0012C4  B4D8               	btfsc	status,2,c
  2113  0012C6  D00F               	goto	l1783
  2114  0012C8  0625               	decf	___ftadd@sign,f,c
  2115  0012CA  C025  F022         	movff	___ftadd@sign,??___ftadd
  2116  0012CE  0E07               	movlw	7
  2117  0012D0  1622               	andwf	??___ftadd,f,c
  2118  0012D2  B4D8               	btfsc	status,2,c
  2119  0012D4  D008               	goto	l1783
  2120  0012D6  D7EF               	goto	l1775
  2121  0012D8  D006               	goto	l1783
  2122  0012DA                     l1781:
  2123  0012DA  90D8               	bcf	status,0,c
  2124  0012DC  321E               	rrcf	___ftadd@f1+2,f,c
  2125  0012DE  321D               	rrcf	___ftadd@f1+1,f,c
  2126  0012E0  321C               	rrcf	___ftadd@f1,f,c
  2127  0012E2  2A27               	incf	___ftadd@exp1,f,c
  2128  0012E4  D000               	goto	l1783
  2129  0012E6                     l1783:
  2130  0012E6  5026               	movf	___ftadd@exp2,w,c
  2131  0012E8  1827               	xorwf	___ftadd@exp1,w,c
  2132  0012EA  B4D8               	btfsc	status,2,c
  2133  0012EC  D024               	goto	l599
  2134  0012EE  D7F5               	goto	l1781
  2135  0012F0  D022               	goto	l599
  2136  0012F2                     l1785:
  2137  0012F2  5027               	movf	___ftadd@exp1,w,c
  2138  0012F4  5C26               	subwf	___ftadd@exp2,w,c
  2139  0012F6  B0D8               	btfsc	status,0,c
  2140  0012F8  D01E               	goto	l599
  2141  0012FA                     l1787:
  2142  0012FA  90D8               	bcf	status,0,c
  2143  0012FC  361C               	rlcf	___ftadd@f1,f,c
  2144  0012FE  361D               	rlcf	___ftadd@f1+1,f,c
  2145  001300  361E               	rlcf	___ftadd@f1+2,f,c
  2146  001302  0627               	decf	___ftadd@exp1,f,c
  2147  001304  5027               	movf	___ftadd@exp1,w,c
  2148  001306  1826               	xorwf	___ftadd@exp2,w,c
  2149  001308  B4D8               	btfsc	status,2,c
  2150  00130A  D00F               	goto	l1795
  2151  00130C  0625               	decf	___ftadd@sign,f,c
  2152  00130E  C025  F022         	movff	___ftadd@sign,??___ftadd
  2153  001312  0E07               	movlw	7
  2154  001314  1622               	andwf	??___ftadd,f,c
  2155  001316  B4D8               	btfsc	status,2,c
  2156  001318  D008               	goto	l1795
  2157  00131A  D7EF               	goto	l1787
  2158  00131C  D006               	goto	l1795
  2159  00131E                     l1793:
  2160  00131E  90D8               	bcf	status,0,c
  2161  001320  3221               	rrcf	___ftadd@f2+2,f,c
  2162  001322  3220               	rrcf	___ftadd@f2+1,f,c
  2163  001324  321F               	rrcf	___ftadd@f2,f,c
  2164  001326  2A26               	incf	___ftadd@exp2,f,c
  2165  001328  D000               	goto	l1795
  2166  00132A                     l1795:
  2167  00132A  5026               	movf	___ftadd@exp2,w,c
  2168  00132C  1827               	xorwf	___ftadd@exp1,w,c
  2169  00132E  B4D8               	btfsc	status,2,c
  2170  001330  D002               	goto	l599
  2171  001332  D7F5               	goto	l1793
  2172  001334  D000               	goto	l599
  2173  001336                     l599:
  2174  001336  AE25               	btfss	___ftadd@sign,7,c
  2175  001338  D00C               	goto	l608
  2176  00133A  0EFF               	movlw	255
  2177  00133C  1A1C               	xorwf	___ftadd@f1,f,c
  2178  00133E  0EFF               	movlw	255
  2179  001340  1A1D               	xorwf	___ftadd@f1+1,f,c
  2180  001342  0EFF               	movlw	255
  2181  001344  1A1E               	xorwf	___ftadd@f1+2,f,c
  2182  001346  0E01               	movlw	1
  2183  001348  261C               	addwf	___ftadd@f1,f,c
  2184  00134A  0E00               	movlw	0
  2185  00134C  221D               	addwfc	___ftadd@f1+1,f,c
  2186  00134E  0E00               	movlw	0
  2187  001350  221E               	addwfc	___ftadd@f1+2,f,c
  2188  001352                     l608:
  2189  001352  AC25               	btfss	___ftadd@sign,6,c
  2190  001354  D00D               	goto	l1801
  2191  001356  0EFF               	movlw	255
  2192  001358  1A1F               	xorwf	___ftadd@f2,f,c
  2193  00135A  0EFF               	movlw	255
  2194  00135C  1A20               	xorwf	___ftadd@f2+1,f,c
  2195  00135E  0EFF               	movlw	255
  2196  001360  1A21               	xorwf	___ftadd@f2+2,f,c
  2197  001362  0E01               	movlw	1
  2198  001364  261F               	addwf	___ftadd@f2,f,c
  2199  001366  0E00               	movlw	0
  2200  001368  2220               	addwfc	___ftadd@f2+1,f,c
  2201  00136A  0E00               	movlw	0
  2202  00136C  2221               	addwfc	___ftadd@f2+2,f,c
  2203  00136E  D000               	goto	l1801
  2204  001370                     l1801:
  2205  001370  0E00               	movlw	0
  2206  001372  6E25               	movwf	___ftadd@sign,c
  2207  001374  501C               	movf	___ftadd@f1,w,c
  2208  001376  261F               	addwf	___ftadd@f2,f,c
  2209  001378  501D               	movf	___ftadd@f1+1,w,c
  2210  00137A  2220               	addwfc	___ftadd@f2+1,f,c
  2211  00137C  501E               	movf	___ftadd@f1+2,w,c
  2212  00137E  2221               	addwfc	___ftadd@f2+2,f,c
  2213  001380  AE21               	btfss	___ftadd@f2+2,7,c
  2214  001382  D00F               	goto	l1811
  2215  001384  0EFF               	movlw	255
  2216  001386  1A1F               	xorwf	___ftadd@f2,f,c
  2217  001388  0EFF               	movlw	255
  2218  00138A  1A20               	xorwf	___ftadd@f2+1,f,c
  2219  00138C  0EFF               	movlw	255
  2220  00138E  1A21               	xorwf	___ftadd@f2+2,f,c
  2221  001390  0E01               	movlw	1
  2222  001392  261F               	addwf	___ftadd@f2,f,c
  2223  001394  0E00               	movlw	0
  2224  001396  2220               	addwfc	___ftadd@f2+1,f,c
  2225  001398  0E00               	movlw	0
  2226  00139A  2221               	addwfc	___ftadd@f2+2,f,c
  2227  00139C  0E01               	movlw	1
  2228  00139E  6E25               	movwf	___ftadd@sign,c
  2229  0013A0  D000               	goto	l1811
  2230  0013A2                     l1811:
  2231  0013A2  C01F  F001         	movff	___ftadd@f2,___ftpack@arg
  2232  0013A6  C020  F002         	movff	___ftadd@f2+1,___ftpack@arg+1
  2233  0013AA  C021  F003         	movff	___ftadd@f2+2,___ftpack@arg+2
  2234  0013AE  C027  F004         	movff	___ftadd@exp1,___ftpack@exp
  2235  0013B2  C025  F005         	movff	___ftadd@sign,___ftpack@sign
  2236  0013B6  ECE4  F00B         	call	___ftpack	;wreg free
  2237  0013BA  C001  F01C         	movff	?___ftpack,?___ftadd
  2238  0013BE  C002  F01D         	movff	?___ftpack+1,?___ftadd+1
  2239  0013C2  C003  F01E         	movff	?___ftpack+2,?___ftadd+2
  2240  0013C6  D000               	goto	l585
  2241  0013C8                     l585:
  2242  0013C8  0012               	return		;funcret
  2243  0013CA                     __end_of___ftadd:
  2244                           	opt stack 0
  2245                           tblptru	equ	0xFF8
  2246                           tblptrh	equ	0xFF7
  2247                           tblptrl	equ	0xFF6
  2248                           tablat	equ	0xFF5
  2249                           prodh	equ	0xFF4
  2250                           prodl	equ	0xFF3
  2251                           postinc0	equ	0xFEE
  2252                           postdec1	equ	0xFE5
  2253                           fsr1l	equ	0xFE1
  2254                           postinc2	equ	0xFDE
  2255                           postdec2	equ	0xFDD
  2256                           fsr2h	equ	0xFDA
  2257                           fsr2l	equ	0xFD9
  2258                           status	equ	0xFD8
  2259                           
  2260 ;; *************** function ___awtoft *****************
  2261 ;; Defined at:
  2262 ;;		line 32 in file "D:\Program Files (x86)\Microchip\xc8\v1.34\sources\common\awtoft.c"
  2263 ;; Parameters:    Size  Location     Type
  2264 ;;  c               2    8[COMRAM] int 
  2265 ;; Auto vars:     Size  Location     Type
  2266 ;;  sign            1   11[COMRAM] unsigned char 
  2267 ;; Return value:  Size  Location     Type
  2268 ;;                  3    8[COMRAM] float 
  2269 ;; Registers used:
  2270 ;;		wreg, status,2, status,0, cstack
  2271 ;; Tracked objects:
  2272 ;;		On entry : 0/0
  2273 ;;		On exit  : 0/0
  2274 ;;		Unchanged: 0/0
  2275 ;; Data sizes:     COMRAM   BANK0   BANK1   BANK2   BANK3   BANK4   BANK5   BANK6   BANK7   BANK8   BANK9  BANK10  BANK1
      +1  BANK12  BANK13  BANK14  BANK15
  2276 ;;      Params:         3       0       0       0       0       0       0       0       0       0       0       0       
      +0       0       0       0       0
  2277 ;;      Locals:         1       0       0       0       0       0       0       0       0       0       0       0       
      +0       0       0       0       0
  2278 ;;      Temps:          0       0       0       0       0       0       0       0       0       0       0       0       
      +0       0       0       0       0
  2279 ;;      Totals:         4       0       0       0       0       0       0       0       0       0       0       0       
      +0       0       0       0       0
  2280 ;;Total ram usage:        4 bytes
  2281 ;; Hardware stack levels used:    1
  2282 ;; Hardware stack levels required when called:    1
  2283 ;; This function calls:
  2284 ;;		___ftpack
  2285 ;; This function is called by:
  2286 ;;		_main
  2287 ;; This function uses a non-reentrant model
  2288 ;;
  2289                           
  2290                           	psect	text10
  2291  001C4C                     __ptext10:
  2292                           	opt stack 0
  2293  001C4C                     ___awtoft:
  2294                           	opt stack 29
  2295                           
  2296                           ;incstack = 0
  2297  001C4C  0E00               	movlw	0
  2298  001C4E  6E0C               	movwf	___awtoft@sign,c
  2299  001C50  AE0A               	btfss	___awtoft@c+1,7,c
  2300  001C52  D007               	goto	l1953
  2301  001C54  6C09               	negf	___awtoft@c,c
  2302  001C56  1E0A               	comf	___awtoft@c+1,f,c
  2303  001C58  B0D8               	btfsc	status,0,c
  2304  001C5A  2A0A               	incf	___awtoft@c+1,f,c
  2305  001C5C  0E01               	movlw	1
  2306  001C5E  6E0C               	movwf	___awtoft@sign,c
  2307  001C60  D000               	goto	l1953
  2308  001C62                     l1953:
  2309  001C62  C009  F001         	movff	___awtoft@c,___ftpack@arg
  2310  001C66  C00A  F002         	movff	___awtoft@c+1,___ftpack@arg+1
  2311  001C6A  6A03               	clrf	___ftpack@arg+2,c
  2312  001C6C  0E8E               	movlw	142
  2313  001C6E  6E04               	movwf	___ftpack@exp,c
  2314  001C70  C00C  F005         	movff	___awtoft@sign,___ftpack@sign
  2315  001C74  ECE4  F00B         	call	___ftpack	;wreg free
  2316  001C78  C001  F009         	movff	?___ftpack,?___awtoft
  2317  001C7C  C002  F00A         	movff	?___ftpack+1,?___awtoft+1
  2318  001C80  C003  F00B         	movff	?___ftpack+2,?___awtoft+2
  2319  001C84  D000               	goto	l454
  2320  001C86                     l454:
  2321  001C86  0012               	return		;funcret
  2322  001C88                     __end_of___awtoft:
  2323                           	opt stack 0
  2324                           tblptru	equ	0xFF8
  2325                           tblptrh	equ	0xFF7
  2326                           tblptrl	equ	0xFF6
  2327                           tablat	equ	0xFF5
  2328                           prodh	equ	0xFF4
  2329                           prodl	equ	0xFF3
  2330                           postinc0	equ	0xFEE
  2331                           postdec1	equ	0xFE5
  2332                           fsr1l	equ	0xFE1
  2333                           postinc2	equ	0xFDE
  2334                           postdec2	equ	0xFDD
  2335                           fsr2h	equ	0xFDA
  2336                           fsr2l	equ	0xFD9
  2337                           status	equ	0xFD8
  2338                           
  2339 ;; *************** function ___ftpack *****************
  2340 ;; Defined at:
  2341 ;;		line 62 in file "D:\Program Files (x86)\Microchip\xc8\v1.34\sources\common\float.c"
  2342 ;; Parameters:    Size  Location     Type
  2343 ;;  arg             3    0[COMRAM] unsigned um
  2344 ;;  exp             1    3[COMRAM] unsigned char 
  2345 ;;  sign            1    4[COMRAM] unsigned char 
  2346 ;; Auto vars:     Size  Location     Type
  2347 ;;		None
  2348 ;; Return value:  Size  Location     Type
  2349 ;;                  3    0[COMRAM] float 
  2350 ;; Registers used:
  2351 ;;		wreg, status,2, status,0
  2352 ;; Tracked objects:
  2353 ;;		On entry : 0/0
  2354 ;;		On exit  : 0/0
  2355 ;;		Unchanged: 0/0
  2356 ;; Data sizes:     COMRAM   BANK0   BANK1   BANK2   BANK3   BANK4   BANK5   BANK6   BANK7   BANK8   BANK9  BANK10  BANK1
      +1  BANK12  BANK13  BANK14  BANK15
  2357 ;;      Params:         5       0       0       0       0       0       0       0       0       0       0       0       
      +0       0       0       0       0
  2358 ;;      Locals:         0       0       0       0       0       0       0       0       0       0       0       0       
      +0       0       0       0       0
  2359 ;;      Temps:          3       0       0       0       0       0       0       0       0       0       0       0       
      +0       0       0       0       0
  2360 ;;      Totals:         8       0       0       0       0       0       0       0       0       0       0       0       
      +0       0       0       0       0
  2361 ;;Total ram usage:        8 bytes
  2362 ;; Hardware stack levels used:    1
  2363 ;; This function calls:
  2364 ;;		Nothing
  2365 ;; This function is called by:
  2366 ;;		___awtoft
  2367 ;;		___ftadd
  2368 ;;		___ftdiv
  2369 ;;		___ftmul
  2370 ;; This function uses a non-reentrant model
  2371 ;;
  2372                           
  2373                           	psect	text11
  2374  0017C8                     __ptext11:
  2375                           	opt stack 0
  2376  0017C8                     ___ftpack:
  2377                           	opt stack 29
  2378                           
  2379                           ;incstack = 0
  2380  0017C8  5004               	movf	___ftpack@exp,w,c
  2381  0017CA  B4D8               	btfsc	status,2,c
  2382  0017CC  D005               	goto	l1515
  2383  0017CE  5001               	movf	___ftpack@arg,w,c
  2384  0017D0  1002               	iorwf	___ftpack@arg+1,w,c
  2385  0017D2  1003               	iorwf	___ftpack@arg+2,w,c
  2386  0017D4  A4D8               	btfss	status,2,c
  2387  0017D6  D00E               	goto	l1521
  2388  0017D8                     l1515:
  2389  0017D8  0E00               	movlw	0
  2390  0017DA  6E01               	movwf	?___ftpack,c
  2391  0017DC  0E00               	movlw	0
  2392  0017DE  6E02               	movwf	?___ftpack+1,c
  2393  0017E0  0E00               	movlw	0
  2394  0017E2  6E03               	movwf	?___ftpack+2,c
  2395  0017E4  D053               	goto	l544
  2396  0017E6  D006               	goto	l1521
  2397  0017E8                     l1519:
  2398  0017E8  2A04               	incf	___ftpack@exp,f,c
  2399  0017EA  90D8               	bcf	status,0,c
  2400  0017EC  3203               	rrcf	___ftpack@arg+2,f,c
  2401  0017EE  3202               	rrcf	___ftpack@arg+1,f,c
  2402  0017F0  3201               	rrcf	___ftpack@arg,f,c
  2403  0017F2  D000               	goto	l1521
  2404  0017F4                     l1521:
  2405  0017F4  0E00               	movlw	0
  2406  0017F6  1401               	andwf	___ftpack@arg,w,c
  2407  0017F8  6E06               	movwf	??___ftpack& (0+255),c
  2408  0017FA  0E00               	movlw	0
  2409  0017FC  1402               	andwf	___ftpack@arg+1,w,c
  2410  0017FE  6E07               	movwf	(??___ftpack+1)& (0+255),c
  2411  001800  0EFE               	movlw	254
  2412  001802  1403               	andwf	___ftpack@arg+2,w,c
  2413  001804  6E08               	movwf	(??___ftpack+2)& (0+255),c
  2414  001806  5006               	movf	??___ftpack,w,c
  2415  001808  1007               	iorwf	??___ftpack+1,w,c
  2416  00180A  1008               	iorwf	??___ftpack+2,w,c
  2417  00180C  B4D8               	btfsc	status,2,c
  2418  00180E  D00E               	goto	l1527
  2419  001810  D7EB               	goto	l1519
  2420  001812  D00C               	goto	l1527
  2421  001814                     l1523:
  2422  001814  2A04               	incf	___ftpack@exp,f,c
  2423  001816  0E01               	movlw	1
  2424  001818  2601               	addwf	___ftpack@arg,f,c
  2425  00181A  0E00               	movlw	0
  2426  00181C  2202               	addwfc	___ftpack@arg+1,f,c
  2427  00181E  0E00               	movlw	0
  2428  001820  2203               	addwfc	___ftpack@arg+2,f,c
  2429  001822  90D8               	bcf	status,0,c
  2430  001824  3203               	rrcf	___ftpack@arg+2,f,c
  2431  001826  3202               	rrcf	___ftpack@arg+1,f,c
  2432  001828  3201               	rrcf	___ftpack@arg,f,c
  2433  00182A  D000               	goto	l1527
  2434  00182C                     l1527:
  2435  00182C  0E00               	movlw	0
  2436  00182E  1401               	andwf	___ftpack@arg,w,c
  2437  001830  6E06               	movwf	??___ftpack& (0+255),c
  2438  001832  0E00               	movlw	0
  2439  001834  1402               	andwf	___ftpack@arg+1,w,c
  2440  001836  6E07               	movwf	(??___ftpack+1)& (0+255),c
  2441  001838  0EFF               	movlw	255
  2442  00183A  1403               	andwf	___ftpack@arg+2,w,c
  2443  00183C  6E08               	movwf	(??___ftpack+2)& (0+255),c
  2444  00183E  5006               	movf	??___ftpack,w,c
  2445  001840  1007               	iorwf	??___ftpack+1,w,c
  2446  001842  1008               	iorwf	??___ftpack+2,w,c
  2447  001844  B4D8               	btfsc	status,2,c
  2448  001846  D008               	goto	l1531
  2449  001848  D7E5               	goto	l1523
  2450  00184A  D006               	goto	l1531
  2451  00184C                     l1529:
  2452  00184C  0604               	decf	___ftpack@exp,f,c
  2453  00184E  90D8               	bcf	status,0,c
  2454  001850  3601               	rlcf	___ftpack@arg,f,c
  2455  001852  3602               	rlcf	___ftpack@arg+1,f,c
  2456  001854  3603               	rlcf	___ftpack@arg+2,f,c
  2457  001856  D000               	goto	l1531
  2458  001858                     l1531:
  2459  001858  BE02               	btfsc	___ftpack@arg+1,7,c
  2460  00185A  D004               	goto	l555
  2461  00185C  0E02               	movlw	2
  2462  00185E  6004               	cpfslt	___ftpack@exp,c
  2463  001860  D7F5               	goto	l1529
  2464  001862  D000               	goto	l555
  2465  001864                     l555:
  2466  001864  B004               	btfsc	___ftpack@exp,0,c
  2467  001866  D002               	goto	l1537
  2468  001868  9E02               	bcf	___ftpack@arg+1,7,c
  2469  00186A  D000               	goto	l1537
  2470  00186C                     l1537:
  2471  00186C  90D8               	bcf	status,0,c
  2472  00186E  3204               	rrcf	___ftpack@exp,f,c
  2473  001870  5004               	movf	___ftpack@exp,w,c
  2474  001872  1203               	iorwf	___ftpack@arg+2,f,c
  2475  001874  5005               	movf	___ftpack@sign,w,c
  2476  001876  B4D8               	btfsc	status,2,c
  2477  001878  D002               	goto	l1543
  2478  00187A  8E03               	bsf	___ftpack@arg+2,7,c
  2479  00187C  D000               	goto	l1543
  2480  00187E                     l1543:
  2481  00187E  C001  F001         	movff	___ftpack@arg,?___ftpack
  2482  001882  C002  F002         	movff	___ftpack@arg+1,?___ftpack+1
  2483  001886  C003  F003         	movff	___ftpack@arg+2,?___ftpack+2
  2484  00188A  D000               	goto	l544
  2485  00188C                     l544:
  2486  00188C  0012               	return		;funcret
  2487  00188E                     __end_of___ftpack:
  2488                           	opt stack 0
  2489                           tblptru	equ	0xFF8
  2490                           tblptrh	equ	0xFF7
  2491                           tblptrl	equ	0xFF6
  2492                           tablat	equ	0xFF5
  2493                           prodh	equ	0xFF4
  2494                           prodl	equ	0xFF3
  2495                           postinc0	equ	0xFEE
  2496                           postdec1	equ	0xFE5
  2497                           fsr1l	equ	0xFE1
  2498                           postinc2	equ	0xFDE
  2499                           postdec2	equ	0xFDD
  2500                           fsr2h	equ	0xFDA
  2501                           fsr2l	equ	0xFD9
  2502                           status	equ	0xFD8
  2503                           
  2504 ;; *************** function ___awmod *****************
  2505 ;; Defined at:
  2506 ;;		line 8 in file "D:\Program Files (x86)\Microchip\xc8\v1.34\sources\common\awmod.c"
  2507 ;; Parameters:    Size  Location     Type
  2508 ;;  dividend        2    0[COMRAM] int 
  2509 ;;  divisor         2    2[COMRAM] int 
  2510 ;; Auto vars:     Size  Location     Type
  2511 ;;  sign            1    5[COMRAM] unsigned char 
  2512 ;;  counter         1    4[COMRAM] unsigned char 
  2513 ;; Return value:  Size  Location     Type
  2514 ;;                  2    0[COMRAM] int 
  2515 ;; Registers used:
  2516 ;;		wreg, status,2, status,0
  2517 ;; Tracked objects:
  2518 ;;		On entry : 0/0
  2519 ;;		On exit  : 0/0
  2520 ;;		Unchanged: 0/0
  2521 ;; Data sizes:     COMRAM   BANK0   BANK1   BANK2   BANK3   BANK4   BANK5   BANK6   BANK7   BANK8   BANK9  BANK10  BANK1
      +1  BANK12  BANK13  BANK14  BANK15
  2522 ;;      Params:         4       0       0       0       0       0       0       0       0       0       0       0       
      +0       0       0       0       0
  2523 ;;      Locals:         2       0       0       0       0       0       0       0       0       0       0       0       
      +0       0       0       0       0
  2524 ;;      Temps:          0       0       0       0       0       0       0       0       0       0       0       0       
      +0       0       0       0       0
  2525 ;;      Totals:         6       0       0       0       0       0       0       0       0       0       0       0       
      +0       0       0       0       0
  2526 ;;Total ram usage:        6 bytes
  2527 ;; Hardware stack levels used:    1
  2528 ;; This function calls:
  2529 ;;		Nothing
  2530 ;; This function is called by:
  2531 ;;		_main
  2532 ;; This function uses a non-reentrant model
  2533 ;;
  2534                           
  2535                           	psect	text12
  2536  0019C4                     __ptext12:
  2537                           	opt stack 0
  2538  0019C4                     ___awmod:
  2539                           	opt stack 30
  2540                           
  2541                           ;incstack = 0
  2542  0019C4  0E00               	movlw	0
  2543  0019C6  6E06               	movwf	___awmod@sign,c
  2544  0019C8  AE02               	btfss	___awmod@dividend+1,7,c
  2545  0019CA  D007               	goto	l1917
  2546  0019CC  6C01               	negf	___awmod@dividend,c
  2547  0019CE  1E02               	comf	___awmod@dividend+1,f,c
  2548  0019D0  B0D8               	btfsc	status,0,c
  2549  0019D2  2A02               	incf	___awmod@dividend+1,f,c
  2550  0019D4  0E01               	movlw	1
  2551  0019D6  6E06               	movwf	___awmod@sign,c
  2552  0019D8  D000               	goto	l1917
  2553  0019DA                     l1917:
  2554  0019DA  AE04               	btfss	___awmod@divisor+1,7,c
  2555  0019DC  D005               	goto	l1921
  2556  0019DE  6C03               	negf	___awmod@divisor,c
  2557  0019E0  1E04               	comf	___awmod@divisor+1,f,c
  2558  0019E2  B0D8               	btfsc	status,0,c
  2559  0019E4  2A04               	incf	___awmod@divisor+1,f,c
  2560  0019E6  D000               	goto	l1921
  2561  0019E8                     l1921:
  2562  0019E8  5003               	movf	___awmod@divisor,w,c
  2563  0019EA  1004               	iorwf	___awmod@divisor+1,w,c
  2564  0019EC  B4D8               	btfsc	status,2,c
  2565  0019EE  D01D               	goto	l1937
  2566  0019F0  0E01               	movlw	1
  2567  0019F2  6E05               	movwf	___awmod@counter,c
  2568  0019F4  D005               	goto	l1927
  2569  0019F6                     l1925:
  2570  0019F6  90D8               	bcf	status,0,c
  2571  0019F8  3603               	rlcf	___awmod@divisor,f,c
  2572  0019FA  3604               	rlcf	___awmod@divisor+1,f,c
  2573  0019FC  2A05               	incf	___awmod@counter,f,c
  2574  0019FE  D000               	goto	l1927
  2575  001A00                     l1927:
  2576  001A00  BE04               	btfsc	___awmod@divisor+1,7,c
  2577  001A02  D002               	goto	l1929
  2578  001A04  D7F8               	goto	l1925
  2579  001A06  D000               	goto	l1929
  2580  001A08                     l1929:
  2581  001A08  5003               	movf	___awmod@divisor,w,c
  2582  001A0A  5C01               	subwf	___awmod@dividend,w,c
  2583  001A0C  5004               	movf	___awmod@divisor+1,w,c
  2584  001A0E  5802               	subwfb	___awmod@dividend+1,w,c
  2585  001A10  A0D8               	btfss	status,0,c
  2586  001A12  D005               	goto	l1933
  2587  001A14  5003               	movf	___awmod@divisor,w,c
  2588  001A16  5E01               	subwf	___awmod@dividend,f,c
  2589  001A18  5004               	movf	___awmod@divisor+1,w,c
  2590  001A1A  5A02               	subwfb	___awmod@dividend+1,f,c
  2591  001A1C  D000               	goto	l1933
  2592  001A1E                     l1933:
  2593  001A1E  90D8               	bcf	status,0,c
  2594  001A20  3204               	rrcf	___awmod@divisor+1,f,c
  2595  001A22  3203               	rrcf	___awmod@divisor,f,c
  2596  001A24  2E05               	decfsz	___awmod@counter,f,c
  2597  001A26  D7F0               	goto	l1929
  2598  001A28  D000               	goto	l1937
  2599  001A2A                     l1937:
  2600  001A2A  5006               	movf	___awmod@sign,w,c
  2601  001A2C  B4D8               	btfsc	status,2,c
  2602  001A2E  D005               	goto	l1941
  2603  001A30  6C01               	negf	___awmod@dividend,c
  2604  001A32  1E02               	comf	___awmod@dividend+1,f,c
  2605  001A34  B0D8               	btfsc	status,0,c
  2606  001A36  2A02               	incf	___awmod@dividend+1,f,c
  2607  001A38  D000               	goto	l1941
  2608  001A3A                     l1941:
  2609  001A3A  C001  F001         	movff	___awmod@dividend,?___awmod
  2610  001A3E  C002  F002         	movff	___awmod@dividend+1,?___awmod+1
  2611  001A42  D000               	goto	l442
  2612  001A44                     l442:
  2613  001A44  0012               	return		;funcret
  2614  001A46                     __end_of___awmod:
  2615                           	opt stack 0
  2616                           tblptru	equ	0xFF8
  2617                           tblptrh	equ	0xFF7
  2618                           tblptrl	equ	0xFF6
  2619                           tablat	equ	0xFF5
  2620                           prodh	equ	0xFF4
  2621                           prodl	equ	0xFF3
  2622                           postinc0	equ	0xFEE
  2623                           postdec1	equ	0xFE5
  2624                           fsr1l	equ	0xFE1
  2625                           postinc2	equ	0xFDE
  2626                           postdec2	equ	0xFDD
  2627                           fsr2h	equ	0xFDA
  2628                           fsr2l	equ	0xFD9
  2629                           status	equ	0xFD8
  2630                           
  2631 ;; *************** function _WAIT_1_SEC *****************
  2632 ;; Defined at:
  2633 ;;		line 59 in file "Lab5_Test.c"
  2634 ;; Parameters:    Size  Location     Type
  2635 ;;		None
  2636 ;; Auto vars:     Size  Location     Type
  2637 ;;  j               2    0[COMRAM] int 
  2638 ;; Return value:  Size  Location     Type
  2639 ;;		None               void
  2640 ;; Registers used:
  2641 ;;		wreg, status,2, status,0
  2642 ;; Tracked objects:
  2643 ;;		On entry : 0/0
  2644 ;;		On exit  : 0/0
  2645 ;;		Unchanged: 0/0
  2646 ;; Data sizes:     COMRAM   BANK0   BANK1   BANK2   BANK3   BANK4   BANK5   BANK6   BANK7   BANK8   BANK9  BANK10  BANK1
      +1  BANK12  BANK13  BANK14  BANK15
  2647 ;;      Params:         0       0       0       0       0       0       0       0       0       0       0       0       
      +0       0       0       0       0
  2648 ;;      Locals:         2       0       0       0       0       0       0       0       0       0       0       0       
      +0       0       0       0       0
  2649 ;;      Temps:          0       0       0       0       0       0       0       0       0       0       0       0       
      +0       0       0       0       0
  2650 ;;      Totals:         2       0       0       0       0       0       0       0       0       0       0       0       
      +0       0       0       0       0
  2651 ;;Total ram usage:        2 bytes
  2652 ;; Hardware stack levels used:    1
  2653 ;; This function calls:
  2654 ;;		Nothing
  2655 ;; This function is called by:
  2656 ;;		_main
  2657 ;; This function uses a non-reentrant model
  2658 ;;
  2659                           
  2660                           	psect	text13
  2661  001CFC                     __ptext13:
  2662                           	opt stack 0
  2663  001CFC                     _WAIT_1_SEC:
  2664                           	opt stack 30
  2665                           
  2666                           ;Lab5_Test.c: 61: for (int j=0; j<17000; j++);
  2667                           
  2668                           ;incstack = 0
  2669  001CFC  0E00               	movlw	0
  2670  001CFE  6E02               	movwf	WAIT_1_SEC@j+1,c
  2671  001D00  0E00               	movlw	0
  2672  001D02  6E01               	movwf	WAIT_1_SEC@j,c
  2673  001D04                     l1019:
  2674  001D04  BE02               	btfsc	WAIT_1_SEC@j+1,7,c
  2675  001D06  D008               	goto	l1023
  2676  001D08  0E68               	movlw	104
  2677  001D0A  5C01               	subwf	WAIT_1_SEC@j,w,c
  2678  001D0C  0E42               	movlw	66
  2679  001D0E  5802               	subwfb	WAIT_1_SEC@j+1,w,c
  2680  001D10  B0D8               	btfsc	status,0,c
  2681  001D12  D005               	goto	l93
  2682  001D14  D001               	goto	l1023
  2683  001D16  D003               	goto	l93
  2684  001D18                     l1023:
  2685  001D18  4A01               	infsnz	WAIT_1_SEC@j,f,c
  2686  001D1A  2A02               	incf	WAIT_1_SEC@j+1,f,c
  2687  001D1C  D7F3               	goto	l1019
  2688  001D1E                     l93:
  2689  001D1E  0012               	return		;funcret
  2690  001D20                     __end_of_WAIT_1_SEC:
  2691                           	opt stack 0
  2692                           tblptru	equ	0xFF8
  2693                           tblptrh	equ	0xFF7
  2694                           tblptrl	equ	0xFF6
  2695                           tablat	equ	0xFF5
  2696                           prodh	equ	0xFF4
  2697                           prodl	equ	0xFF3
  2698                           postinc0	equ	0xFEE
  2699                           postdec1	equ	0xFE5
  2700                           fsr1l	equ	0xFE1
  2701                           postinc2	equ	0xFDE
  2702                           postdec2	equ	0xFDD
  2703                           fsr2h	equ	0xFDA
  2704                           fsr2l	equ	0xFD9
  2705                           status	equ	0xFD8
  2706                           
  2707 ;; *************** function _Select_ADC_Channel *****************
  2708 ;; Defined at:
  2709 ;;		line 41 in file "Lab5_Test.c"
  2710 ;; Parameters:    Size  Location     Type
  2711 ;;  channel         1    wreg     unsigned char 
  2712 ;; Auto vars:     Size  Location     Type
  2713 ;;  channel         1    0[COMRAM] unsigned char 
  2714 ;; Return value:  Size  Location     Type
  2715 ;;		None               void
  2716 ;; Registers used:
  2717 ;;		wreg, status,2, status,0, prodl, prodh
  2718 ;; Tracked objects:
  2719 ;;		On entry : 0/0
  2720 ;;		On exit  : 0/0
  2721 ;;		Unchanged: 0/0
  2722 ;; Data sizes:     COMRAM   BANK0   BANK1   BANK2   BANK3   BANK4   BANK5   BANK6   BANK7   BANK8   BANK9  BANK10  BANK1
      +1  BANK12  BANK13  BANK14  BANK15
  2723 ;;      Params:         0       0       0       0       0       0       0       0       0       0       0       0       
      +0       0       0       0       0
  2724 ;;      Locals:         1       0       0       0       0       0       0       0       0       0       0       0       
      +0       0       0       0       0
  2725 ;;      Temps:          0       0       0       0       0       0       0       0       0       0       0       0       
      +0       0       0       0       0
  2726 ;;      Totals:         1       0       0       0       0       0       0       0       0       0       0       0       
      +0       0       0       0       0
  2727 ;;Total ram usage:        1 bytes
  2728 ;; Hardware stack levels used:    1
  2729 ;; This function calls:
  2730 ;;		Nothing
  2731 ;; This function is called by:
  2732 ;;		_main
  2733 ;; This function uses a non-reentrant model
  2734 ;;
  2735                           
  2736                           	psect	text14
  2737  001D70                     __ptext14:
  2738                           	opt stack 0
  2739  001D70                     _Select_ADC_Channel:
  2740                           	opt stack 30
  2741                           
  2742                           ;incstack = 0
  2743                           ;Select_ADC_Channel@channel stored from wreg
  2744  001D70  6E01               	movwf	Select_ADC_Channel@channel,c
  2745                           
  2746                           ;Lab5_Test.c: 43: ADCON0 = channel * 4 + 1;
  2747  001D72  5001               	movf	Select_ADC_Channel@channel,w,c
  2748  001D74  0D04               	mullw	4
  2749  001D76  28F3               	incf	prodl,w,c
  2750  001D78  6EC2               	movwf	4034,c	;volatile
  2751  001D7A  0012               	return		;funcret
  2752  001D7C                     __end_of_Select_ADC_Channel:
  2753                           	opt stack 0
  2754                           tblptru	equ	0xFF8
  2755                           tblptrh	equ	0xFF7
  2756                           tblptrl	equ	0xFF6
  2757                           tablat	equ	0xFF5
  2758                           prodh	equ	0xFF4
  2759                           prodl	equ	0xFF3
  2760                           postinc0	equ	0xFEE
  2761                           postdec1	equ	0xFE5
  2762                           fsr1l	equ	0xFE1
  2763                           postinc2	equ	0xFDE
  2764                           postdec2	equ	0xFDD
  2765                           fsr2h	equ	0xFDA
  2766                           fsr2l	equ	0xFD9
  2767                           status	equ	0xFD8
  2768                           
  2769 ;; *************** function _Init_UART *****************
  2770 ;; Defined at:
  2771 ;;		line 51 in file "Lab5_Test.c"
  2772 ;; Parameters:    Size  Location     Type
  2773 ;;		None
  2774 ;; Auto vars:     Size  Location     Type
  2775 ;;		None
  2776 ;; Return value:  Size  Location     Type
  2777 ;;		None               void
  2778 ;; Registers used:
  2779 ;;		wreg, status,2, cstack
  2780 ;; Tracked objects:
  2781 ;;		On entry : 0/0
  2782 ;;		On exit  : 0/0
  2783 ;;		Unchanged: 0/0
  2784 ;; Data sizes:     COMRAM   BANK0   BANK1   BANK2   BANK3   BANK4   BANK5   BANK6   BANK7   BANK8   BANK9  BANK10  BANK1
      +1  BANK12  BANK13  BANK14  BANK15
  2785 ;;      Params:         0       0       0       0       0       0       0       0       0       0       0       0       
      +0       0       0       0       0
  2786 ;;      Locals:         0       0       0       0       0       0       0       0       0       0       0       0       
      +0       0       0       0       0
  2787 ;;      Temps:          0       0       0       0       0       0       0       0       0       0       0       0       
      +0       0       0       0       0
  2788 ;;      Totals:         0       0       0       0       0       0       0       0       0       0       0       0       
      +0       0       0       0       0
  2789 ;;Total ram usage:        0 bytes
  2790 ;; Hardware stack levels used:    1
  2791 ;; Hardware stack levels required when called:    1
  2792 ;; This function calls:
  2793 ;;		_OpenUSART
  2794 ;; This function is called by:
  2795 ;;		_main
  2796 ;; This function uses a non-reentrant model
  2797 ;;
  2798                           
  2799                           	psect	text15
  2800  001D4E                     __ptext15:
  2801                           	opt stack 0
  2802  001D4E                     _Init_UART:
  2803                           	opt stack 29
  2804                           
  2805                           ;Lab5_Test.c: 53: OpenUSART (0b01111111 & 0b10111111 &
  2806                           ;Lab5_Test.c: 54: 0b11111110 & 0b11111101 & 0b11111111 &
  2807                           ;Lab5_Test.c: 55: 0b11111111, 25);
  2808                           
  2809                           ;incstack = 0
  2810  001D4E  0E00               	movlw	0
  2811  001D50  6E02               	movwf	OpenUSART@spbrg+1,c
  2812  001D52  0E19               	movlw	25
  2813  001D54  6E01               	movwf	OpenUSART@spbrg,c
  2814  001D56  0E3C               	movlw	60
  2815  001D58  EC23  F00D         	call	_OpenUSART
  2816                           
  2817                           ;Lab5_Test.c: 56: OSCCON = 0x60;
  2818  001D5C  0E60               	movlw	96
  2819  001D5E  6ED3               	movwf	4051,c	;volatile
  2820  001D60  0012               	return		;funcret
  2821  001D62                     __end_of_Init_UART:
  2822                           	opt stack 0
  2823                           tblptru	equ	0xFF8
  2824                           tblptrh	equ	0xFF7
  2825                           tblptrl	equ	0xFF6
  2826                           tablat	equ	0xFF5
  2827                           prodh	equ	0xFF4
  2828                           prodl	equ	0xFF3
  2829                           postinc0	equ	0xFEE
  2830                           postdec1	equ	0xFE5
  2831                           fsr1l	equ	0xFE1
  2832                           postinc2	equ	0xFDE
  2833                           postdec2	equ	0xFDD
  2834                           fsr2h	equ	0xFDA
  2835                           fsr2l	equ	0xFD9
  2836                           status	equ	0xFD8
  2837                           
  2838 ;; *************** function _OpenUSART *****************
  2839 ;; Defined at:
  2840 ;;		line 73 in file "D:\Program Files (x86)\Microchip\xc8\v1.34\sources\pic18\plib\USART\uopen.c"
  2841 ;; Parameters:    Size  Location     Type
  2842 ;;  config          1    wreg     unsigned char 
  2843 ;;  spbrg           2    0[COMRAM] unsigned int 
  2844 ;; Auto vars:     Size  Location     Type
  2845 ;;  config          1    2[COMRAM] unsigned char 
  2846 ;; Return value:  Size  Location     Type
  2847 ;;		None               void
  2848 ;; Registers used:
  2849 ;;		wreg, status,2
  2850 ;; Tracked objects:
  2851 ;;		On entry : 0/0
  2852 ;;		On exit  : 0/0
  2853 ;;		Unchanged: 0/0
  2854 ;; Data sizes:     COMRAM   BANK0   BANK1   BANK2   BANK3   BANK4   BANK5   BANK6   BANK7   BANK8   BANK9  BANK10  BANK1
      +1  BANK12  BANK13  BANK14  BANK15
  2855 ;;      Params:         2       0       0       0       0       0       0       0       0       0       0       0       
      +0       0       0       0       0
  2856 ;;      Locals:         1       0       0       0       0       0       0       0       0       0       0       0       
      +0       0       0       0       0
  2857 ;;      Temps:          0       0       0       0       0       0       0       0       0       0       0       0       
      +0       0       0       0       0
  2858 ;;      Totals:         3       0       0       0       0       0       0       0       0       0       0       0       
      +0       0       0       0       0
  2859 ;;Total ram usage:        3 bytes
  2860 ;; Hardware stack levels used:    1
  2861 ;; This function calls:
  2862 ;;		Nothing
  2863 ;; This function is called by:
  2864 ;;		_Init_UART
  2865 ;; This function uses a non-reentrant model
  2866 ;;
  2867                           
  2868                           	psect	text16
  2869  001A46                     __ptext16:
  2870                           	opt stack 0
  2871  001A46                     _OpenUSART:
  2872                           	opt stack 29
  2873                           
  2874                           ;incstack = 0
  2875                           ;OpenUSART@config stored from wreg
  2876  001A46  6E03               	movwf	OpenUSART@config,c
  2877  001A48  0E00               	movlw	0
  2878  001A4A  6EAC               	movwf	4012,c	;volatile
  2879  001A4C  0E00               	movlw	0
  2880  001A4E  6EAB               	movwf	4011,c	;volatile
  2881  001A50  A003               	btfss	OpenUSART@config,0,c
  2882  001A52  D002               	goto	l1467
  2883  001A54  88AC               	bsf	4012,4,c	;volatile
  2884  001A56  D000               	goto	l1467
  2885  001A58                     l1467:
  2886  001A58  A203               	btfss	OpenUSART@config,1,c
  2887  001A5A  D003               	goto	l1471
  2888  001A5C  8CAC               	bsf	4012,6,c	;volatile
  2889  001A5E  8CAB               	bsf	4011,6,c	;volatile
  2890  001A60  D000               	goto	l1471
  2891  001A62                     l1471:
  2892  001A62  A403               	btfss	OpenUSART@config,2,c
  2893  001A64  D002               	goto	l1475
  2894  001A66  8EAC               	bsf	4012,7,c	;volatile
  2895  001A68  D000               	goto	l1475
  2896  001A6A                     l1475:
  2897  001A6A  A603               	btfss	OpenUSART@config,3,c
  2898  001A6C  D002               	goto	l224
  2899  001A6E  88AB               	bsf	4011,4,c	;volatile
  2900  001A70  D002               	goto	l1479
  2901  001A72                     l224:
  2902  001A72  8AAB               	bsf	4011,5,c	;volatile
  2903  001A74  D000               	goto	l1479
  2904  001A76                     l1479:
  2905  001A76  B803               	btfsc	OpenUSART@config,4,c
  2906  001A78  84AC               	bsf	4012,2,c	;volatile
  2907  001A7A  989E               	bcf	3998,4,c	;volatile
  2908  001A7C  AA03               	btfss	OpenUSART@config,5,c
  2909  001A7E  D002               	goto	l1487
  2910  001A80  86AB               	bsf	4011,3,c	;volatile
  2911  001A82  D000               	goto	l1487
  2912  001A84                     l1487:
  2913  001A84  AC03               	btfss	OpenUSART@config,6,c
  2914  001A86  D002               	goto	l228
  2915  001A88  8A9D               	bsf	3997,5,c	;volatile
  2916  001A8A  D001               	goto	l229
  2917  001A8C                     l228:
  2918  001A8C  9A9D               	bcf	3997,5,c	;volatile
  2919  001A8E                     l229:
  2920  001A8E  9A9E               	bcf	3998,5,c	;volatile
  2921  001A90  AE03               	btfss	OpenUSART@config,7,c
  2922  001A92  D002               	goto	l230
  2923  001A94  889D               	bsf	3997,4,c	;volatile
  2924  001A96  D001               	goto	l231
  2925  001A98                     l230:
  2926  001A98  989D               	bcf	3997,4,c	;volatile
  2927  001A9A                     l231:
  2928  001A9A  C001  FFAF         	movff	OpenUSART@spbrg,4015	;volatile
  2929  001A9E  5002               	movf	OpenUSART@spbrg+1,w,c
  2930  001AA0  6EB0               	movwf	4016,c	;volatile
  2931  001AA2  8AAC               	bsf	4012,5,c	;volatile
  2932  001AA4  8EAB               	bsf	4011,7,c	;volatile
  2933  001AA6  9C94               	bcf	3988,6,c	;volatile
  2934  001AA8  8E94               	bsf	3988,7,c	;volatile
  2935  001AAA  B8AC               	btfsc	4012,4,c	;volatile
  2936  001AAC  BEAC               	btfsc	4012,7,c	;volatile
  2937  001AAE  D002               	goto	l233
  2938  001AB0  8C94               	bsf	3988,6,c	;volatile
  2939  001AB2  D000               	goto	l233
  2940  001AB4                     l233:
  2941  001AB4  0012               	return		;funcret
  2942  001AB6                     __end_of_OpenUSART:
  2943                           	opt stack 0
  2944                           tblptru	equ	0xFF8
  2945                           tblptrh	equ	0xFF7
  2946                           tblptrl	equ	0xFF6
  2947                           tablat	equ	0xFF5
  2948                           prodh	equ	0xFF4
  2949                           prodl	equ	0xFF3
  2950                           postinc0	equ	0xFEE
  2951                           postdec1	equ	0xFE5
  2952                           fsr1l	equ	0xFE1
  2953                           postinc2	equ	0xFDE
  2954                           postdec2	equ	0xFDD
  2955                           fsr2h	equ	0xFDA
  2956                           fsr2l	equ	0xFD9
  2957                           status	equ	0xFD8
  2958                           
  2959 ;; *************** function _Init_TRIS *****************
  2960 ;; Defined at:
  2961 ;;		line 100 in file "Lab5_Test.c"
  2962 ;; Parameters:    Size  Location     Type
  2963 ;;		None
  2964 ;; Auto vars:     Size  Location     Type
  2965 ;;		None
  2966 ;; Return value:  Size  Location     Type
  2967 ;;		None               void
  2968 ;; Registers used:
  2969 ;;		wreg, status,2
  2970 ;; Tracked objects:
  2971 ;;		On entry : 0/0
  2972 ;;		On exit  : 0/0
  2973 ;;		Unchanged: 0/0
  2974 ;; Data sizes:     COMRAM   BANK0   BANK1   BANK2   BANK3   BANK4   BANK5   BANK6   BANK7   BANK8   BANK9  BANK10  BANK1
      +1  BANK12  BANK13  BANK14  BANK15
  2975 ;;      Params:         0       0       0       0       0       0       0       0       0       0       0       0       
      +0       0       0       0       0
  2976 ;;      Locals:         0       0       0       0       0       0       0       0       0       0       0       0       
      +0       0       0       0       0
  2977 ;;      Temps:          0       0       0       0       0       0       0       0       0       0       0       0       
      +0       0       0       0       0
  2978 ;;      Totals:         0       0       0       0       0       0       0       0       0       0       0       0       
      +0       0       0       0       0
  2979 ;;Total ram usage:        0 bytes
  2980 ;; Hardware stack levels used:    1
  2981 ;; This function calls:
  2982 ;;		Nothing
  2983 ;; This function is called by:
  2984 ;;		_main
  2985 ;; This function uses a non-reentrant model
  2986 ;;
  2987                           
  2988                           	psect	text17
  2989  001D38                     __ptext17:
  2990                           	opt stack 0
  2991  001D38                     _Init_TRIS:
  2992                           	opt stack 30
  2993                           
  2994                           ;Lab5_Test.c: 102: TRISA = 0x0F;
  2995                           
  2996                           ;incstack = 0
  2997  001D38  0E0F               	movlw	15
  2998  001D3A  6E92               	movwf	3986,c	;volatile
  2999                           
  3000                           ;Lab5_Test.c: 103: TRISB = 0x00;
  3001  001D3C  0E00               	movlw	0
  3002  001D3E  6E93               	movwf	3987,c	;volatile
  3003                           
  3004                           ;Lab5_Test.c: 104: TRISC = 0x00;
  3005  001D40  0E00               	movlw	0
  3006  001D42  6E94               	movwf	3988,c	;volatile
  3007                           
  3008                           ;Lab5_Test.c: 105: TRISD = 0x00;
  3009  001D44  0E00               	movlw	0
  3010  001D46  6E95               	movwf	3989,c	;volatile
  3011                           
  3012                           ;Lab5_Test.c: 106: TRISE = 0x00;
  3013  001D48  0E00               	movlw	0
  3014  001D4A  6E96               	movwf	3990,c	;volatile
  3015  001D4C  0012               	return		;funcret
  3016  001D4E                     __end_of_Init_TRIS:
  3017                           	opt stack 0
  3018                           tblptru	equ	0xFF8
  3019                           tblptrh	equ	0xFF7
  3020                           tblptrl	equ	0xFF6
  3021                           tablat	equ	0xFF5
  3022                           prodh	equ	0xFF4
  3023                           prodl	equ	0xFF3
  3024                           postinc0	equ	0xFEE
  3025                           postdec1	equ	0xFE5
  3026                           fsr1l	equ	0xFE1
  3027                           postinc2	equ	0xFDE
  3028                           postdec2	equ	0xFDD
  3029                           fsr2h	equ	0xFDA
  3030                           fsr2l	equ	0xFD9
  3031                           status	equ	0xFD8
  3032                           
  3033 ;; *************** function _Init_ADC *****************
  3034 ;; Defined at:
  3035 ;;		line 108 in file "Lab5_Test.c"
  3036 ;; Parameters:    Size  Location     Type
  3037 ;;		None
  3038 ;; Auto vars:     Size  Location     Type
  3039 ;;		None
  3040 ;; Return value:  Size  Location     Type
  3041 ;;		None               void
  3042 ;; Registers used:
  3043 ;;		wreg, status,2
  3044 ;; Tracked objects:
  3045 ;;		On entry : 0/0
  3046 ;;		On exit  : 0/0
  3047 ;;		Unchanged: 0/0
  3048 ;; Data sizes:     COMRAM   BANK0   BANK1   BANK2   BANK3   BANK4   BANK5   BANK6   BANK7   BANK8   BANK9  BANK10  BANK1
      +1  BANK12  BANK13  BANK14  BANK15
  3049 ;;      Params:         0       0       0       0       0       0       0       0       0       0       0       0       
      +0       0       0       0       0
  3050 ;;      Locals:         0       0       0       0       0       0       0       0       0       0       0       0       
      +0       0       0       0       0
  3051 ;;      Temps:          0       0       0       0       0       0       0       0       0       0       0       0       
      +0       0       0       0       0
  3052 ;;      Totals:         0       0       0       0       0       0       0       0       0       0       0       0       
      +0       0       0       0       0
  3053 ;;Total ram usage:        0 bytes
  3054 ;; Hardware stack levels used:    1
  3055 ;; This function calls:
  3056 ;;		Nothing
  3057 ;; This function is called by:
  3058 ;;		_main
  3059 ;; This function uses a non-reentrant model
  3060 ;;
  3061                           
  3062                           	psect	text18
  3063  001D86                     __ptext18:
  3064                           	opt stack 0
  3065  001D86                     _Init_ADC:
  3066                           	opt stack 30
  3067                           
  3068                           ;Lab5_Test.c: 110: ADCON1 = 0x1B;
  3069                           
  3070                           ;incstack = 0
  3071  001D86  0E1B               	movlw	27
  3072  001D88  6EC1               	movwf	4033,c	;volatile
  3073                           
  3074                           ;Lab5_Test.c: 111: ADCON2 = 0xA9;
  3075  001D8A  0EA9               	movlw	169
  3076  001D8C  6EC0               	movwf	4032,c	;volatile
  3077  001D8E  0012               	return		;funcret
  3078  001D90                     __end_of_Init_ADC:
  3079                           	opt stack 0
  3080                           tblptru	equ	0xFF8
  3081                           tblptrh	equ	0xFF7
  3082                           tblptrl	equ	0xFF6
  3083                           tablat	equ	0xFF5
  3084                           prodh	equ	0xFF4
  3085                           prodl	equ	0xFF3
  3086                           postinc0	equ	0xFEE
  3087                           postdec1	equ	0xFE5
  3088                           fsr1l	equ	0xFE1
  3089                           postinc2	equ	0xFDE
  3090                           postdec2	equ	0xFDD
  3091                           fsr2h	equ	0xFDA
  3092                           fsr2l	equ	0xFD9
  3093                           status	equ	0xFD8
  3094                           
  3095 ;; *************** function _Get_Full_ADC *****************
  3096 ;; Defined at:
  3097 ;;		line 114 in file "Lab5_Test.c"
  3098 ;; Parameters:    Size  Location     Type
  3099 ;;		None
  3100 ;; Auto vars:     Size  Location     Type
  3101 ;;  result          2    4[COMRAM] int 
  3102 ;; Return value:  Size  Location     Type
  3103 ;;                  2    0[COMRAM] unsigned int 
  3104 ;; Registers used:
  3105 ;;		wreg, status,2, status,0
  3106 ;; Tracked objects:
  3107 ;;		On entry : 0/0
  3108 ;;		On exit  : 0/0
  3109 ;;		Unchanged: 0/0
  3110 ;; Data sizes:     COMRAM   BANK0   BANK1   BANK2   BANK3   BANK4   BANK5   BANK6   BANK7   BANK8   BANK9  BANK10  BANK1
      +1  BANK12  BANK13  BANK14  BANK15
  3111 ;;      Params:         2       0       0       0       0       0       0       0       0       0       0       0       
      +0       0       0       0       0
  3112 ;;      Locals:         2       0       0       0       0       0       0       0       0       0       0       0       
      +0       0       0       0       0
  3113 ;;      Temps:          2       0       0       0       0       0       0       0       0       0       0       0       
      +0       0       0       0       0
  3114 ;;      Totals:         6       0       0       0       0       0       0       0       0       0       0       0       
      +0       0       0       0       0
  3115 ;;Total ram usage:        6 bytes
  3116 ;; Hardware stack levels used:    1
  3117 ;; This function calls:
  3118 ;;		Nothing
  3119 ;; This function is called by:
  3120 ;;		_main
  3121 ;; This function uses a non-reentrant model
  3122 ;;
  3123                           
  3124                           	psect	text19
  3125  001CB2                     __ptext19:
  3126                           	opt stack 0
  3127  001CB2                     _Get_Full_ADC:
  3128                           	opt stack 30
  3129                           
  3130                           ;Lab5_Test.c: 116: int result;
  3131                           ;Lab5_Test.c: 117: ADCON0bits.GO=1;
  3132                           
  3133                           ;incstack = 0
  3134  001CB2  82C2               	bsf	4034,1,c	;volatile
  3135                           
  3136                           ;Lab5_Test.c: 118: while(ADCON0bits.DONE==1);
  3137  001CB4  D000               	goto	l110
  3138  001CB6                     l110:
  3139  001CB6  B2C2               	btfsc	4034,1,c	;volatile
  3140  001CB8  D7FE               	goto	l110
  3141                           
  3142                           ;Lab5_Test.c: 119: result = (ADRESH * 0x100) + ADRESL;
  3143  001CBA  50C4               	movf	4036,w,c	;volatile
  3144  001CBC  6E04               	movwf	(??_Get_Full_ADC+1)& (0+255),c
  3145  001CBE  6A03               	clrf	??_Get_Full_ADC& (0+255),c
  3146  001CC0  50C3               	movf	4035,w,c	;volatile
  3147  001CC2  2403               	addwf	??_Get_Full_ADC,w,c
  3148  001CC4  6E05               	movwf	Get_Full_ADC@result,c
  3149  001CC6  0E00               	movlw	0
  3150  001CC8  2004               	addwfc	??_Get_Full_ADC+1,w,c
  3151  001CCA  6E06               	movwf	Get_Full_ADC@result+1,c
  3152                           
  3153                           ;Lab5_Test.c: 121: return result;
  3154  001CCC  C005  F001         	movff	Get_Full_ADC@result,?_Get_Full_ADC
  3155  001CD0  C006  F002         	movff	Get_Full_ADC@result+1,?_Get_Full_ADC+1
  3156  001CD4  D000               	goto	l113
  3157  001CD6                     l113:
  3158  001CD6  0012               	return		;funcret
  3159  001CD8                     __end_of_Get_Full_ADC:
  3160                           	opt stack 0
  3161                           tblptru	equ	0xFF8
  3162                           tblptrh	equ	0xFF7
  3163                           tblptrl	equ	0xFF6
  3164                           tablat	equ	0xFF5
  3165                           prodh	equ	0xFF4
  3166                           prodl	equ	0xFF3
  3167                           postinc0	equ	0xFEE
  3168                           postdec1	equ	0xFE5
  3169                           fsr1l	equ	0xFE1
  3170                           postinc2	equ	0xFDE
  3171                           postdec2	equ	0xFDD
  3172                           fsr2h	equ	0xFDA
  3173                           fsr2l	equ	0xFD9
  3174                           status	equ	0xFD8
  3175                           
  3176 ;; *************** function _Display_Upper_Digit *****************
  3177 ;; Defined at:
  3178 ;;		line 124 in file "Lab5_Test.c"
  3179 ;; Parameters:    Size  Location     Type
  3180 ;;  digit           1    wreg     unsigned char 
  3181 ;; Auto vars:     Size  Location     Type
  3182 ;;  digit           1    1[COMRAM] unsigned char 
  3183 ;;  PE              1    0[COMRAM] unsigned char 
  3184 ;; Return value:  Size  Location     Type
  3185 ;;		None               void
  3186 ;; Registers used:
  3187 ;;		wreg, fsr2l, fsr2h, status,2, status,0, prodl, prodh
  3188 ;; Tracked objects:
  3189 ;;		On entry : 0/0
  3190 ;;		On exit  : 0/0
  3191 ;;		Unchanged: 0/0
  3192 ;; Data sizes:     COMRAM   BANK0   BANK1   BANK2   BANK3   BANK4   BANK5   BANK6   BANK7   BANK8   BANK9  BANK10  BANK1
      +1  BANK12  BANK13  BANK14  BANK15
  3193 ;;      Params:         0       0       0       0       0       0       0       0       0       0       0       0       
      +0       0       0       0       0
  3194 ;;      Locals:         2       0       0       0       0       0       0       0       0       0       0       0       
      +0       0       0       0       0
  3195 ;;      Temps:          0       0       0       0       0       0       0       0       0       0       0       0       
      +0       0       0       0       0
  3196 ;;      Totals:         2       0       0       0       0       0       0       0       0       0       0       0       
      +0       0       0       0       0
  3197 ;;Total ram usage:        2 bytes
  3198 ;; Hardware stack levels used:    1
  3199 ;; This function calls:
  3200 ;;		Nothing
  3201 ;; This function is called by:
  3202 ;;		_main
  3203 ;; This function uses a non-reentrant model
  3204 ;;
  3205                           
  3206                           	psect	text20
  3207  001C0C                     __ptext20:
  3208                           	opt stack 0
  3209  001C0C                     _Display_Upper_Digit:
  3210                           	opt stack 30
  3211                           
  3212                           ;incstack = 0
  3213                           ;Display_Upper_Digit@digit stored from wreg
  3214  001C0C  6E02               	movwf	Display_Upper_Digit@digit,c
  3215                           
  3216                           ;Lab5_Test.c: 126: PORTC = array[digit] & 0x3F;
  3217  001C0E  5002               	movf	Display_Upper_Digit@digit,w,c
  3218  001C10  0D01               	mullw	1
  3219  001C12  0E4A               	movlw	low _array
  3220  001C14  24F3               	addwf	prodl,w,c
  3221  001C16  6ED9               	movwf	fsr2l,c
  3222  001C18  0E00               	movlw	high _array
  3223  001C1A  20F4               	addwfc	prodh,w,c
  3224  001C1C  6EDA               	movwf	fsr2h,c
  3225  001C1E  50DF               	movf	indf2,w,c
  3226  001C20  0B3F               	andlw	63
  3227  001C22  6E82               	movwf	3970,c	;volatile
  3228                           
  3229                           ;Lab5_Test.c: 127: char PE = array[digit] & 0x40;
  3230  001C24  5002               	movf	Display_Upper_Digit@digit,w,c
  3231  001C26  0D01               	mullw	1
  3232  001C28  0E4A               	movlw	low _array
  3233  001C2A  24F3               	addwf	prodl,w,c
  3234  001C2C  6ED9               	movwf	fsr2l,c
  3235  001C2E  0E00               	movlw	high _array
  3236  001C30  20F4               	addwfc	prodh,w,c
  3237  001C32  6EDA               	movwf	fsr2h,c
  3238  001C34  50DF               	movf	indf2,w,c
  3239  001C36  0B40               	andlw	64
  3240  001C38  6E01               	movwf	Display_Upper_Digit@PE,c
  3241                           
  3242                           ;Lab5_Test.c: 128: if (PE == 0) PORTE = 0x00;
  3243  001C3A  5001               	movf	Display_Upper_Digit@PE,w,c
  3244  001C3C  A4D8               	btfss	status,2,c
  3245  001C3E  D002               	goto	l1045
  3246  001C40  0E00               	movlw	0
  3247  001C42  D001               	goto	L1
  3248  001C44                     l1045:
  3249                           
  3250                           ;Lab5_Test.c: 129: else PORTE = 0x03;
  3251  001C44  0E03               	movlw	3
  3252  001C46                     L1:
  3253  001C46  6E84               	movwf	3972,c	;volatile
  3254  001C48  D000               	goto	l118
  3255  001C4A                     l118:
  3256  001C4A  0012               	return		;funcret
  3257  001C4C                     __end_of_Display_Upper_Digit:
  3258                           	opt stack 0
  3259                           tblptru	equ	0xFF8
  3260                           tblptrh	equ	0xFF7
  3261                           tblptrl	equ	0xFF6
  3262                           tablat	equ	0xFF5
  3263                           prodh	equ	0xFF4
  3264                           prodl	equ	0xFF3
  3265                           postinc0	equ	0xFEE
  3266                           postdec1	equ	0xFE5
  3267                           fsr1l	equ	0xFE1
  3268                           indf2	equ	0xFDF
  3269                           postinc2	equ	0xFDE
  3270                           postdec2	equ	0xFDD
  3271                           fsr2h	equ	0xFDA
  3272                           fsr2l	equ	0xFD9
  3273                           status	equ	0xFD8
  3274                           
  3275 ;; *************** function _Display_Lower_Digit *****************
  3276 ;; Defined at:
  3277 ;;		line 132 in file "Lab5_Test.c"
  3278 ;; Parameters:    Size  Location     Type
  3279 ;;  digit           1    wreg     unsigned char 
  3280 ;; Auto vars:     Size  Location     Type
  3281 ;;  digit           1    0[COMRAM] unsigned char 
  3282 ;; Return value:  Size  Location     Type
  3283 ;;		None               void
  3284 ;; Registers used:
  3285 ;;		wreg, fsr2l, fsr2h, status,2, status,0, prodl, prodh
  3286 ;; Tracked objects:
  3287 ;;		On entry : 0/0
  3288 ;;		On exit  : 0/0
  3289 ;;		Unchanged: 0/0
  3290 ;; Data sizes:     COMRAM   BANK0   BANK1   BANK2   BANK3   BANK4   BANK5   BANK6   BANK7   BANK8   BANK9  BANK10  BANK1
      +1  BANK12  BANK13  BANK14  BANK15
  3291 ;;      Params:         0       0       0       0       0       0       0       0       0       0       0       0       
      +0       0       0       0       0
  3292 ;;      Locals:         1       0       0       0       0       0       0       0       0       0       0       0       
      +0       0       0       0       0
  3293 ;;      Temps:          0       0       0       0       0       0       0       0       0       0       0       0       
      +0       0       0       0       0
  3294 ;;      Totals:         1       0       0       0       0       0       0       0       0       0       0       0       
      +0       0       0       0       0
  3295 ;;Total ram usage:        1 bytes
  3296 ;; Hardware stack levels used:    1
  3297 ;; This function calls:
  3298 ;;		Nothing
  3299 ;; This function is called by:
  3300 ;;		_main
  3301 ;; This function uses a non-reentrant model
  3302 ;;
  3303                           
  3304                           	psect	text21
  3305  001D20                     __ptext21:
  3306                           	opt stack 0
  3307  001D20                     _Display_Lower_Digit:
  3308                           	opt stack 30
  3309                           
  3310                           ;incstack = 0
  3311                           ;Display_Lower_Digit@digit stored from wreg
  3312  001D20  6E01               	movwf	Display_Lower_Digit@digit,c
  3313                           
  3314                           ;Lab5_Test.c: 134: PORTD = array[digit];
  3315  001D22  5001               	movf	Display_Lower_Digit@digit,w,c
  3316  001D24  0D01               	mullw	1
  3317  001D26  0E4A               	movlw	low _array
  3318  001D28  24F3               	addwf	prodl,w,c
  3319  001D2A  6ED9               	movwf	fsr2l,c
  3320  001D2C  0E00               	movlw	high _array
  3321  001D2E  20F4               	addwfc	prodh,w,c
  3322  001D30  6EDA               	movwf	fsr2h,c
  3323  001D32  50DF               	movf	indf2,w,c
  3324  001D34  6E83               	movwf	3971,c	;volatile
  3325  001D36  0012               	return		;funcret
  3326  001D38                     __end_of_Display_Lower_Digit:
  3327                           	opt stack 0
  3328                           tblptru	equ	0xFF8
  3329                           tblptrh	equ	0xFF7
  3330                           tblptrl	equ	0xFF6
  3331                           tablat	equ	0xFF5
  3332                           prodh	equ	0xFF4
  3333                           prodl	equ	0xFF3
  3334                           postinc0	equ	0xFEE
  3335                           postdec1	equ	0xFE5
  3336                           fsr1l	equ	0xFE1
  3337                           indf2	equ	0xFDF
  3338                           postinc2	equ	0xFDE
  3339                           postdec2	equ	0xFDD
  3340                           fsr2h	equ	0xFDA
  3341                           fsr2l	equ	0xFD9
  3342                           status	equ	0xFD8
  3343                           
  3344 ;; *************** function _DO_DISPLAY_D3 *****************
  3345 ;; Defined at:
  3346 ;;		line 164 in file "Lab5_Test.c"
  3347 ;; Parameters:    Size  Location     Type
  3348 ;;  voltage         2    0[COMRAM] int 
  3349 ;; Auto vars:     Size  Location     Type
  3350 ;;		None
  3351 ;; Return value:  Size  Location     Type
  3352 ;;		None               void
  3353 ;; Registers used:
  3354 ;;		wreg, status,2, status,0, cstack
  3355 ;; Tracked objects:
  3356 ;;		On entry : 0/0
  3357 ;;		On exit  : 0/0
  3358 ;;		Unchanged: 0/0
  3359 ;; Data sizes:     COMRAM   BANK0   BANK1   BANK2   BANK3   BANK4   BANK5   BANK6   BANK7   BANK8   BANK9  BANK10  BANK1
      +1  BANK12  BANK13  BANK14  BANK15
  3360 ;;      Params:         2       0       0       0       0       0       0       0       0       0       0       0       
      +0       0       0       0       0
  3361 ;;      Locals:         0       0       0       0       0       0       0       0       0       0       0       0       
      +0       0       0       0       0
  3362 ;;      Temps:          0       0       0       0       0       0       0       0       0       0       0       0       
      +0       0       0       0       0
  3363 ;;      Totals:         2       0       0       0       0       0       0       0       0       0       0       0       
      +0       0       0       0       0
  3364 ;;Total ram usage:        2 bytes
  3365 ;; Hardware stack levels used:    1
  3366 ;; Hardware stack levels required when called:    1
  3367 ;; This function calls:
  3368 ;;		_SET_D3_GREEN
  3369 ;;		_SET_D3_RED
  3370 ;;		_SET_D3_YELLOW
  3371 ;; This function is called by:
  3372 ;;		_main
  3373 ;; This function uses a non-reentrant model
  3374 ;;
  3375                           
  3376                           	psect	text22
  3377  001B6C                     __ptext22:
  3378                           	opt stack 0
  3379  001B6C                     _DO_DISPLAY_D3:
  3380                           	opt stack 29
  3381                           
  3382                           ;Lab5_Test.c: 166: if (voltage < 2500)
  3383                           
  3384                           ;incstack = 0
  3385  001B6C  BE02               	btfsc	DO_DISPLAY_D3@voltage+1,7,c
  3386  001B6E  D006               	goto	l1733
  3387  001B70  0EC4               	movlw	196
  3388  001B72  5C01               	subwf	DO_DISPLAY_D3@voltage,w,c
  3389  001B74  0E09               	movlw	9
  3390  001B76  5802               	subwfb	DO_DISPLAY_D3@voltage+1,w,c
  3391  001B78  B0D8               	btfsc	status,0,c
  3392  001B7A  D003               	goto	l1735
  3393  001B7C                     l1733:
  3394                           
  3395                           ;Lab5_Test.c: 167: {
  3396                           ;Lab5_Test.c: 168: SET_D3_RED();
  3397  001B7C  ECDF  F00E         	call	_SET_D3_RED	;wreg free
  3398  001B80  D000               	goto	l1735
  3399  001B82                     l1735:
  3400                           
  3401                           ;Lab5_Test.c: 169: }
  3402                           ;Lab5_Test.c: 170: if (voltage >= 2500 && voltage < 3500)
  3403  001B82  BE02               	btfsc	DO_DISPLAY_D3@voltage+1,7,c
  3404  001B84  D011               	goto	l1741
  3405  001B86  0EC4               	movlw	196
  3406  001B88  5C01               	subwf	DO_DISPLAY_D3@voltage,w,c
  3407  001B8A  0E09               	movlw	9
  3408  001B8C  5802               	subwfb	DO_DISPLAY_D3@voltage+1,w,c
  3409  001B8E  A0D8               	btfss	status,0,c
  3410  001B90  D00B               	goto	l1741
  3411  001B92  BE02               	btfsc	DO_DISPLAY_D3@voltage+1,7,c
  3412  001B94  D006               	goto	l1739
  3413  001B96  0EAC               	movlw	172
  3414  001B98  5C01               	subwf	DO_DISPLAY_D3@voltage,w,c
  3415  001B9A  0E0D               	movlw	13
  3416  001B9C  5802               	subwfb	DO_DISPLAY_D3@voltage+1,w,c
  3417  001B9E  B0D8               	btfsc	status,0,c
  3418  001BA0  D003               	goto	l1741
  3419  001BA2                     l1739:
  3420                           
  3421                           ;Lab5_Test.c: 171: {
  3422                           ;Lab5_Test.c: 172: SET_D3_GREEN();
  3423  001BA2  ECE2  F00E         	call	_SET_D3_GREEN	;wreg free
  3424  001BA6  D000               	goto	l1741
  3425  001BA8                     l1741:
  3426                           
  3427                           ;Lab5_Test.c: 173: }
  3428                           ;Lab5_Test.c: 174: if (voltage >= 3500)
  3429  001BA8  BE02               	btfsc	DO_DISPLAY_D3@voltage+1,7,c
  3430  001BAA  D009               	goto	l146
  3431  001BAC  0EAC               	movlw	172
  3432  001BAE  5C01               	subwf	DO_DISPLAY_D3@voltage,w,c
  3433  001BB0  0E0D               	movlw	13
  3434  001BB2  5802               	subwfb	DO_DISPLAY_D3@voltage+1,w,c
  3435  001BB4  A0D8               	btfss	status,0,c
  3436  001BB6  D003               	goto	l146
  3437                           
  3438                           ;Lab5_Test.c: 175: {
  3439                           ;Lab5_Test.c: 176: SET_D3_YELLOW();
  3440  001BB8  ECDC  F00E         	call	_SET_D3_YELLOW	;wreg free
  3441  001BBC  D000               	goto	l146
  3442  001BBE                     l146:
  3443  001BBE  0012               	return		;funcret
  3444  001BC0                     __end_of_DO_DISPLAY_D3:
  3445                           	opt stack 0
  3446                           tblptru	equ	0xFF8
  3447                           tblptrh	equ	0xFF7
  3448                           tblptrl	equ	0xFF6
  3449                           tablat	equ	0xFF5
  3450                           prodh	equ	0xFF4
  3451                           prodl	equ	0xFF3
  3452                           postinc0	equ	0xFEE
  3453                           postdec1	equ	0xFE5
  3454                           fsr1l	equ	0xFE1
  3455                           indf2	equ	0xFDF
  3456                           postinc2	equ	0xFDE
  3457                           postdec2	equ	0xFDD
  3458                           fsr2h	equ	0xFDA
  3459                           fsr2l	equ	0xFD9
  3460                           status	equ	0xFD8
  3461                           
  3462 ;; *************** function _SET_D3_YELLOW *****************
  3463 ;; Defined at:
  3464 ;;		line 227 in file "Lab5_Test.c"
  3465 ;; Parameters:    Size  Location     Type
  3466 ;;		None
  3467 ;; Auto vars:     Size  Location     Type
  3468 ;;		None
  3469 ;; Return value:  Size  Location     Type
  3470 ;;		None               void
  3471 ;; Registers used:
  3472 ;;		None
  3473 ;; Tracked objects:
  3474 ;;		On entry : 0/0
  3475 ;;		On exit  : 0/0
  3476 ;;		Unchanged: 0/0
  3477 ;; Data sizes:     COMRAM   BANK0   BANK1   BANK2   BANK3   BANK4   BANK5   BANK6   BANK7   BANK8   BANK9  BANK10  BANK1
      +1  BANK12  BANK13  BANK14  BANK15
  3478 ;;      Params:         0       0       0       0       0       0       0       0       0       0       0       0       
      +0       0       0       0       0
  3479 ;;      Locals:         0       0       0       0       0       0       0       0       0       0       0       0       
      +0       0       0       0       0
  3480 ;;      Temps:          0       0       0       0       0       0       0       0       0       0       0       0       
      +0       0       0       0       0
  3481 ;;      Totals:         0       0       0       0       0       0       0       0       0       0       0       0       
      +0       0       0       0       0
  3482 ;;Total ram usage:        0 bytes
  3483 ;; Hardware stack levels used:    1
  3484 ;; This function calls:
  3485 ;;		Nothing
  3486 ;; This function is called by:
  3487 ;;		_DO_DISPLAY_D3
  3488 ;; This function uses a non-reentrant model
  3489 ;;
  3490                           
  3491                           	psect	text23
  3492  001DB8                     __ptext23:
  3493                           	opt stack 0
  3494  001DB8                     _SET_D3_YELLOW:
  3495                           	opt stack 29
  3496                           
  3497                           ;Lab5_Test.c: 229: PORTAbits.RA4 = 1;
  3498                           
  3499                           ;incstack = 0
  3500  001DB8  8880               	bsf	3968,4,c	;volatile
  3501                           
  3502                           ;Lab5_Test.c: 230: PORTAbits.RA5 = 1;
  3503  001DBA  8A80               	bsf	3968,5,c	;volatile
  3504  001DBC  0012               	return		;funcret
  3505  001DBE                     __end_of_SET_D3_YELLOW:
  3506                           	opt stack 0
  3507                           tblptru	equ	0xFF8
  3508                           tblptrh	equ	0xFF7
  3509                           tblptrl	equ	0xFF6
  3510                           tablat	equ	0xFF5
  3511                           prodh	equ	0xFF4
  3512                           prodl	equ	0xFF3
  3513                           postinc0	equ	0xFEE
  3514                           postdec1	equ	0xFE5
  3515                           fsr1l	equ	0xFE1
  3516                           indf2	equ	0xFDF
  3517                           postinc2	equ	0xFDE
  3518                           postdec2	equ	0xFDD
  3519                           fsr2h	equ	0xFDA
  3520                           fsr2l	equ	0xFD9
  3521                           status	equ	0xFD8
  3522                           
  3523 ;; *************** function _SET_D3_RED *****************
  3524 ;; Defined at:
  3525 ;;		line 215 in file "Lab5_Test.c"
  3526 ;; Parameters:    Size  Location     Type
  3527 ;;		None
  3528 ;; Auto vars:     Size  Location     Type
  3529 ;;		None
  3530 ;; Return value:  Size  Location     Type
  3531 ;;		None               void
  3532 ;; Registers used:
  3533 ;;		None
  3534 ;; Tracked objects:
  3535 ;;		On entry : 0/0
  3536 ;;		On exit  : 0/0
  3537 ;;		Unchanged: 0/0
  3538 ;; Data sizes:     COMRAM   BANK0   BANK1   BANK2   BANK3   BANK4   BANK5   BANK6   BANK7   BANK8   BANK9  BANK10  BANK1
      +1  BANK12  BANK13  BANK14  BANK15
  3539 ;;      Params:         0       0       0       0       0       0       0       0       0       0       0       0       
      +0       0       0       0       0
  3540 ;;      Locals:         0       0       0       0       0       0       0       0       0       0       0       0       
      +0       0       0       0       0
  3541 ;;      Temps:          0       0       0       0       0       0       0       0       0       0       0       0       
      +0       0       0       0       0
  3542 ;;      Totals:         0       0       0       0       0       0       0       0       0       0       0       0       
      +0       0       0       0       0
  3543 ;;Total ram usage:        0 bytes
  3544 ;; Hardware stack levels used:    1
  3545 ;; This function calls:
  3546 ;;		Nothing
  3547 ;; This function is called by:
  3548 ;;		_DO_DISPLAY_D3
  3549 ;; This function uses a non-reentrant model
  3550 ;;
  3551                           
  3552                           	psect	text24
  3553  001DBE                     __ptext24:
  3554                           	opt stack 0
  3555  001DBE                     _SET_D3_RED:
  3556                           	opt stack 29
  3557                           
  3558                           ;Lab5_Test.c: 217: PORTAbits.RA4 = 1;
  3559                           
  3560                           ;incstack = 0
  3561  001DBE  8880               	bsf	3968,4,c	;volatile
  3562                           
  3563                           ;Lab5_Test.c: 218: PORTAbits.RA5 = 0;
  3564  001DC0  9A80               	bcf	3968,5,c	;volatile
  3565  001DC2  0012               	return		;funcret
  3566  001DC4                     __end_of_SET_D3_RED:
  3567                           	opt stack 0
  3568                           tblptru	equ	0xFF8
  3569                           tblptrh	equ	0xFF7
  3570                           tblptrl	equ	0xFF6
  3571                           tablat	equ	0xFF5
  3572                           prodh	equ	0xFF4
  3573                           prodl	equ	0xFF3
  3574                           postinc0	equ	0xFEE
  3575                           postdec1	equ	0xFE5
  3576                           fsr1l	equ	0xFE1
  3577                           indf2	equ	0xFDF
  3578                           postinc2	equ	0xFDE
  3579                           postdec2	equ	0xFDD
  3580                           fsr2h	equ	0xFDA
  3581                           fsr2l	equ	0xFD9
  3582                           status	equ	0xFD8
  3583                           
  3584 ;; *************** function _SET_D3_GREEN *****************
  3585 ;; Defined at:
  3586 ;;		line 221 in file "Lab5_Test.c"
  3587 ;; Parameters:    Size  Location     Type
  3588 ;;		None
  3589 ;; Auto vars:     Size  Location     Type
  3590 ;;		None
  3591 ;; Return value:  Size  Location     Type
  3592 ;;		None               void
  3593 ;; Registers used:
  3594 ;;		None
  3595 ;; Tracked objects:
  3596 ;;		On entry : 0/0
  3597 ;;		On exit  : 0/0
  3598 ;;		Unchanged: 0/0
  3599 ;; Data sizes:     COMRAM   BANK0   BANK1   BANK2   BANK3   BANK4   BANK5   BANK6   BANK7   BANK8   BANK9  BANK10  BANK1
      +1  BANK12  BANK13  BANK14  BANK15
  3600 ;;      Params:         0       0       0       0       0       0       0       0       0       0       0       0       
      +0       0       0       0       0
  3601 ;;      Locals:         0       0       0       0       0       0       0       0       0       0       0       0       
      +0       0       0       0       0
  3602 ;;      Temps:          0       0       0       0       0       0       0       0       0       0       0       0       
      +0       0       0       0       0
  3603 ;;      Totals:         0       0       0       0       0       0       0       0       0       0       0       0       
      +0       0       0       0       0
  3604 ;;Total ram usage:        0 bytes
  3605 ;; Hardware stack levels used:    1
  3606 ;; This function calls:
  3607 ;;		Nothing
  3608 ;; This function is called by:
  3609 ;;		_DO_DISPLAY_D3
  3610 ;; This function uses a non-reentrant model
  3611 ;;
  3612                           
  3613                           	psect	text25
  3614  001DC4                     __ptext25:
  3615                           	opt stack 0
  3616  001DC4                     _SET_D3_GREEN:
  3617                           	opt stack 29
  3618                           
  3619                           ;Lab5_Test.c: 223: PORTAbits.RA4 = 0;
  3620                           
  3621                           ;incstack = 0
  3622  001DC4  9880               	bcf	3968,4,c	;volatile
  3623                           
  3624                           ;Lab5_Test.c: 224: PORTAbits.RA5 = 1;
  3625  001DC6  8A80               	bsf	3968,5,c	;volatile
  3626  001DC8  0012               	return		;funcret
  3627  001DCA                     __end_of_SET_D3_GREEN:
  3628                           	opt stack 0
  3629                           tblptru	equ	0xFF8
  3630                           tblptrh	equ	0xFF7
  3631                           tblptrl	equ	0xFF6
  3632                           tablat	equ	0xFF5
  3633                           prodh	equ	0xFF4
  3634                           prodl	equ	0xFF3
  3635                           postinc0	equ	0xFEE
  3636                           postdec1	equ	0xFE5
  3637                           fsr1l	equ	0xFE1
  3638                           indf2	equ	0xFDF
  3639                           postinc2	equ	0xFDE
  3640                           postdec2	equ	0xFDD
  3641                           fsr2h	equ	0xFDA
  3642                           fsr2l	equ	0xFD9
  3643                           status	equ	0xFD8
  3644                           
  3645 ;; *************** function _DO_DISPLAY_D2 *****************
  3646 ;; Defined at:
  3647 ;;		line 146 in file "Lab5_Test.c"
  3648 ;; Parameters:    Size  Location     Type
  3649 ;;  temp            2    8[COMRAM] int 
  3650 ;; Auto vars:     Size  Location     Type
  3651 ;;  T               2   10[COMRAM] int 
  3652 ;; Return value:  Size  Location     Type
  3653 ;;		None               void
  3654 ;; Registers used:
  3655 ;;		wreg, status,2, status,0, cstack
  3656 ;; Tracked objects:
  3657 ;;		On entry : 0/0
  3658 ;;		On exit  : 0/0
  3659 ;;		Unchanged: 0/0
  3660 ;; Data sizes:     COMRAM   BANK0   BANK1   BANK2   BANK3   BANK4   BANK5   BANK6   BANK7   BANK8   BANK9  BANK10  BANK1
      +1  BANK12  BANK13  BANK14  BANK15
  3661 ;;      Params:         2       0       0       0       0       0       0       0       0       0       0       0       
      +0       0       0       0       0
  3662 ;;      Locals:         2       0       0       0       0       0       0       0       0       0       0       0       
      +0       0       0       0       0
  3663 ;;      Temps:          0       0       0       0       0       0       0       0       0       0       0       0       
      +0       0       0       0       0
  3664 ;;      Totals:         4       0       0       0       0       0       0       0       0       0       0       0       
      +0       0       0       0       0
  3665 ;;Total ram usage:        4 bytes
  3666 ;; Hardware stack levels used:    1
  3667 ;; Hardware stack levels required when called:    1
  3668 ;; This function calls:
  3669 ;;		___awdiv
  3670 ;; This function is called by:
  3671 ;;		_main
  3672 ;; This function uses a non-reentrant model
  3673 ;;
  3674                           
  3675                           	psect	text26
  3676  001B12                     __ptext26:
  3677                           	opt stack 0
  3678  001B12                     _DO_DISPLAY_D2:
  3679                           	opt stack 29
  3680                           
  3681                           ;Lab5_Test.c: 148: int T = temp / 10;
  3682                           
  3683                           ;incstack = 0
  3684  001B12  C009  F001         	movff	DO_DISPLAY_D2@temp,___awdiv@dividend
  3685  001B16  C00A  F002         	movff	DO_DISPLAY_D2@temp+1,___awdiv@dividend+1
  3686  001B1A  0E00               	movlw	0
  3687  001B1C  6E04               	movwf	___awdiv@divisor+1,c
  3688  001B1E  0E0A               	movlw	10
  3689  001B20  6E03               	movwf	___awdiv@divisor,c
  3690  001B22  EC97  F00C         	call	___awdiv	;wreg free
  3691  001B26  C001  F00B         	movff	?___awdiv,DO_DISPLAY_D2@T
  3692  001B2A  C002  F00C         	movff	?___awdiv+1,DO_DISPLAY_D2@T+1
  3693                           
  3694                           ;Lab5_Test.c: 149: if (T > 0 && T < 8)
  3695  001B2E  BE0C               	btfsc	DO_DISPLAY_D2@T+1,7,c
  3696  001B30  D010               	goto	l1725
  3697  001B32  500C               	movf	DO_DISPLAY_D2@T+1,w,c
  3698  001B34  E103               	bnz	u1540
  3699  001B36  040B               	decf	DO_DISPLAY_D2@T,w,c
  3700  001B38  A0D8               	btfss	status,0,c
  3701  001B3A  D00B               	goto	l1725
  3702  001B3C                     u1540:
  3703  001B3C  BE0C               	btfsc	DO_DISPLAY_D2@T+1,7,c
  3704  001B3E  D006               	goto	l1723
  3705  001B40  500C               	movf	DO_DISPLAY_D2@T+1,w,c
  3706  001B42  E107               	bnz	l1725
  3707  001B44  0E08               	movlw	8
  3708  001B46  5C0B               	subwf	DO_DISPLAY_D2@T,w,c
  3709  001B48  B0D8               	btfsc	status,0,c
  3710  001B4A  D003               	goto	l1725
  3711  001B4C                     l1723:
  3712                           
  3713                           ;Lab5_Test.c: 150: {
  3714                           ;Lab5_Test.c: 151: PORTB = temp;
  3715  001B4C  C009  FF81         	movff	DO_DISPLAY_D2@temp,3969	;volatile
  3716                           
  3717                           ;Lab5_Test.c: 152: }
  3718  001B50  D00C               	goto	l140
  3719  001B52                     l1725:
  3720                           
  3721                           ;Lab5_Test.c: 153: else if (T <= 0)
  3722  001B52  BE0C               	btfsc	DO_DISPLAY_D2@T+1,7,c
  3723  001B54  D005               	goto	l1727
  3724  001B56  500C               	movf	DO_DISPLAY_D2@T+1,w,c
  3725  001B58  E105               	bnz	l1729
  3726  001B5A  040B               	decf	DO_DISPLAY_D2@T,w,c
  3727  001B5C  B0D8               	btfsc	status,0,c
  3728  001B5E  D002               	goto	l1729
  3729  001B60                     l1727:
  3730                           
  3731                           ;Lab5_Test.c: 154: {
  3732                           ;Lab5_Test.c: 155: PORTB = 0x00;
  3733  001B60  0E00               	movlw	0
  3734  001B62  D001               	goto	L2
  3735  001B64                     l1729:
  3736                           
  3737                           ;Lab5_Test.c: 157: else
  3738                           ;Lab5_Test.c: 158: {
  3739                           ;Lab5_Test.c: 159: PORTB = 0x07;
  3740  001B64  0E07               	movlw	7
  3741  001B66                     L2:
  3742  001B66  6E81               	movwf	3969,c	;volatile
  3743  001B68  D000               	goto	l140
  3744  001B6A                     l140:
  3745  001B6A  0012               	return		;funcret
  3746  001B6C                     __end_of_DO_DISPLAY_D2:
  3747                           	opt stack 0
  3748                           tblptru	equ	0xFF8
  3749                           tblptrh	equ	0xFF7
  3750                           tblptrl	equ	0xFF6
  3751                           tablat	equ	0xFF5
  3752                           prodh	equ	0xFF4
  3753                           prodl	equ	0xFF3
  3754                           postinc0	equ	0xFEE
  3755                           postdec1	equ	0xFE5
  3756                           fsr1l	equ	0xFE1
  3757                           indf2	equ	0xFDF
  3758                           postinc2	equ	0xFDE
  3759                           postdec2	equ	0xFDD
  3760                           fsr2h	equ	0xFDA
  3761                           fsr2l	equ	0xFD9
  3762                           status	equ	0xFD8
  3763                           
  3764 ;; *************** function ___awdiv *****************
  3765 ;; Defined at:
  3766 ;;		line 8 in file "D:\Program Files (x86)\Microchip\xc8\v1.34\sources\common\awdiv.c"
  3767 ;; Parameters:    Size  Location     Type
  3768 ;;  dividend        2    0[COMRAM] int 
  3769 ;;  divisor         2    2[COMRAM] int 
  3770 ;; Auto vars:     Size  Location     Type
  3771 ;;  quotient        2    6[COMRAM] int 
  3772 ;;  sign            1    5[COMRAM] unsigned char 
  3773 ;;  counter         1    4[COMRAM] unsigned char 
  3774 ;; Return value:  Size  Location     Type
  3775 ;;                  2    0[COMRAM] int 
  3776 ;; Registers used:
  3777 ;;		wreg, status,2, status,0
  3778 ;; Tracked objects:
  3779 ;;		On entry : 0/0
  3780 ;;		On exit  : 0/0
  3781 ;;		Unchanged: 0/0
  3782 ;; Data sizes:     COMRAM   BANK0   BANK1   BANK2   BANK3   BANK4   BANK5   BANK6   BANK7   BANK8   BANK9  BANK10  BANK1
      +1  BANK12  BANK13  BANK14  BANK15
  3783 ;;      Params:         4       0       0       0       0       0       0       0       0       0       0       0       
      +0       0       0       0       0
  3784 ;;      Locals:         4       0       0       0       0       0       0       0       0       0       0       0       
      +0       0       0       0       0
  3785 ;;      Temps:          0       0       0       0       0       0       0       0       0       0       0       0       
      +0       0       0       0       0
  3786 ;;      Totals:         8       0       0       0       0       0       0       0       0       0       0       0       
      +0       0       0       0       0
  3787 ;;Total ram usage:        8 bytes
  3788 ;; Hardware stack levels used:    1
  3789 ;; This function calls:
  3790 ;;		Nothing
  3791 ;; This function is called by:
  3792 ;;		_main
  3793 ;;		_DO_DISPLAY_D2
  3794 ;; This function uses a non-reentrant model
  3795 ;;
  3796                           
  3797                           	psect	text27
  3798  00192E                     __ptext27:
  3799                           	opt stack 0
  3800  00192E                     ___awdiv:
  3801                           	opt stack 30
  3802                           
  3803                           ;incstack = 0
  3804  00192E  0E00               	movlw	0
  3805  001930  6E06               	movwf	___awdiv@sign,c
  3806  001932  AE04               	btfss	___awdiv@divisor+1,7,c
  3807  001934  D007               	goto	l1555
  3808  001936  6C03               	negf	___awdiv@divisor,c
  3809  001938  1E04               	comf	___awdiv@divisor+1,f,c
  3810  00193A  B0D8               	btfsc	status,0,c
  3811  00193C  2A04               	incf	___awdiv@divisor+1,f,c
  3812  00193E  0E01               	movlw	1
  3813  001940  6E06               	movwf	___awdiv@sign,c
  3814  001942  D000               	goto	l1555
  3815  001944                     l1555:
  3816  001944  AE02               	btfss	___awdiv@dividend+1,7,c
  3817  001946  D007               	goto	l1561
  3818  001948  6C01               	negf	___awdiv@dividend,c
  3819  00194A  1E02               	comf	___awdiv@dividend+1,f,c
  3820  00194C  B0D8               	btfsc	status,0,c
  3821  00194E  2A02               	incf	___awdiv@dividend+1,f,c
  3822  001950  0E01               	movlw	1
  3823  001952  1A06               	xorwf	___awdiv@sign,f,c
  3824  001954  D000               	goto	l1561
  3825  001956                     l1561:
  3826  001956  0E00               	movlw	0
  3827  001958  6E08               	movwf	___awdiv@quotient+1,c
  3828  00195A  0E00               	movlw	0
  3829  00195C  6E07               	movwf	___awdiv@quotient,c
  3830  00195E  5003               	movf	___awdiv@divisor,w,c
  3831  001960  1004               	iorwf	___awdiv@divisor+1,w,c
  3832  001962  B4D8               	btfsc	status,2,c
  3833  001964  D021               	goto	l1583
  3834  001966  0E01               	movlw	1
  3835  001968  6E05               	movwf	___awdiv@counter,c
  3836  00196A  D005               	goto	l1569
  3837  00196C                     l1567:
  3838  00196C  90D8               	bcf	status,0,c
  3839  00196E  3603               	rlcf	___awdiv@divisor,f,c
  3840  001970  3604               	rlcf	___awdiv@divisor+1,f,c
  3841  001972  2A05               	incf	___awdiv@counter,f,c
  3842  001974  D000               	goto	l1569
  3843  001976                     l1569:
  3844  001976  BE04               	btfsc	___awdiv@divisor+1,7,c
  3845  001978  D002               	goto	l1571
  3846  00197A  D7F8               	goto	l1567
  3847  00197C  D000               	goto	l1571
  3848  00197E                     l1571:
  3849  00197E  90D8               	bcf	status,0,c
  3850  001980  3607               	rlcf	___awdiv@quotient,f,c
  3851  001982  3608               	rlcf	___awdiv@quotient+1,f,c
  3852  001984  5003               	movf	___awdiv@divisor,w,c
  3853  001986  5C01               	subwf	___awdiv@dividend,w,c
  3854  001988  5004               	movf	___awdiv@divisor+1,w,c
  3855  00198A  5802               	subwfb	___awdiv@dividend+1,w,c
  3856  00198C  A0D8               	btfss	status,0,c
  3857  00198E  D006               	goto	l1579
  3858  001990  5003               	movf	___awdiv@divisor,w,c
  3859  001992  5E01               	subwf	___awdiv@dividend,f,c
  3860  001994  5004               	movf	___awdiv@divisor+1,w,c
  3861  001996  5A02               	subwfb	___awdiv@dividend+1,f,c
  3862  001998  8007               	bsf	___awdiv@quotient,0,c
  3863  00199A  D000               	goto	l1579
  3864  00199C                     l1579:
  3865  00199C  90D8               	bcf	status,0,c
  3866  00199E  3204               	rrcf	___awdiv@divisor+1,f,c
  3867  0019A0  3203               	rrcf	___awdiv@divisor,f,c
  3868  0019A2  2E05               	decfsz	___awdiv@counter,f,c
  3869  0019A4  D7EC               	goto	l1571
  3870  0019A6  D000               	goto	l1583
  3871  0019A8                     l1583:
  3872  0019A8  5006               	movf	___awdiv@sign,w,c
  3873  0019AA  B4D8               	btfsc	status,2,c
  3874  0019AC  D005               	goto	l1587
  3875  0019AE  6C07               	negf	___awdiv@quotient,c
  3876  0019B0  1E08               	comf	___awdiv@quotient+1,f,c
  3877  0019B2  B0D8               	btfsc	status,0,c
  3878  0019B4  2A08               	incf	___awdiv@quotient+1,f,c
  3879  0019B6  D000               	goto	l1587
  3880  0019B8                     l1587:
  3881  0019B8  C007  F001         	movff	___awdiv@quotient,?___awdiv
  3882  0019BC  C008  F002         	movff	___awdiv@quotient+1,?___awdiv+1
  3883  0019C0  D000               	goto	l429
  3884  0019C2                     l429:
  3885  0019C2  0012               	return		;funcret
  3886  0019C4                     __end_of___awdiv:
  3887                           	opt stack 0
  3888                           tblptru	equ	0xFF8
  3889                           tblptrh	equ	0xFF7
  3890                           tblptrl	equ	0xFF6
  3891                           tablat	equ	0xFF5
  3892                           prodh	equ	0xFF4
  3893                           prodl	equ	0xFF3
  3894                           postinc0	equ	0xFEE
  3895                           postdec1	equ	0xFE5
  3896                           fsr1l	equ	0xFE1
  3897                           indf2	equ	0xFDF
  3898                           postinc2	equ	0xFDE
  3899                           postdec2	equ	0xFDD
  3900                           fsr2h	equ	0xFDA
  3901                           fsr2l	equ	0xFD9
  3902                           status	equ	0xFD8
  3903                           
  3904 ;; *************** function _DO_DISPLAY_D1 *****************
  3905 ;; Defined at:
  3906 ;;		line 137 in file "Lab5_Test.c"
  3907 ;; Parameters:    Size  Location     Type
  3908 ;;  temp            2    0[COMRAM] int 
  3909 ;; Auto vars:     Size  Location     Type
  3910 ;;		None
  3911 ;; Return value:  Size  Location     Type
  3912 ;;		None               void
  3913 ;; Registers used:
  3914 ;;		wreg, status,2, status,0, cstack
  3915 ;; Tracked objects:
  3916 ;;		On entry : 0/0
  3917 ;;		On exit  : 0/0
  3918 ;;		Unchanged: 0/0
  3919 ;; Data sizes:     COMRAM   BANK0   BANK1   BANK2   BANK3   BANK4   BANK5   BANK6   BANK7   BANK8   BANK9  BANK10  BANK1
      +1  BANK12  BANK13  BANK14  BANK15
  3920 ;;      Params:         2       0       0       0       0       0       0       0       0       0       0       0       
      +0       0       0       0       0
  3921 ;;      Locals:         0       0       0       0       0       0       0       0       0       0       0       0       
      +0       0       0       0       0
  3922 ;;      Temps:          0       0       0       0       0       0       0       0       0       0       0       0       
      +0       0       0       0       0
  3923 ;;      Totals:         2       0       0       0       0       0       0       0       0       0       0       0       
      +0       0       0       0       0
  3924 ;;Total ram usage:        2 bytes
  3925 ;; Hardware stack levels used:    1
  3926 ;; Hardware stack levels required when called:    1
  3927 ;; This function calls:
  3928 ;;		_SET_D1_BLUE
  3929 ;;		_SET_D1_CLEAR
  3930 ;;		_SET_D1_GREEN
  3931 ;;		_SET_D1_RED
  3932 ;;		_SET_D1_WHITE
  3933 ;; This function is called by:
  3934 ;;		_main
  3935 ;; This function uses a non-reentrant model
  3936 ;;
  3937                           
  3938                           	psect	text28
  3939  00188E                     __ptext28:
  3940                           	opt stack 0
  3941  00188E                     _DO_DISPLAY_D1:
  3942                           	opt stack 29
  3943                           
  3944                           ;Lab5_Test.c: 139: if (temp < 45) SET_D1_CLEAR();
  3945                           
  3946                           ;incstack = 0
  3947  00188E  BE02               	btfsc	DO_DISPLAY_D1@temp+1,7,c
  3948  001890  D006               	goto	l1693
  3949  001892  5002               	movf	DO_DISPLAY_D1@temp+1,w,c
  3950  001894  E107               	bnz	l1695
  3951  001896  0E2D               	movlw	45
  3952  001898  5C01               	subwf	DO_DISPLAY_D1@temp,w,c
  3953  00189A  B0D8               	btfsc	status,0,c
  3954  00189C  D003               	goto	l1695
  3955  00189E                     l1693:
  3956  00189E  ECD4  F00E         	call	_SET_D1_CLEAR	;wreg free
  3957  0018A2  D044               	goto	l133
  3958  0018A4                     l1695:
  3959                           
  3960                           ;Lab5_Test.c: 140: else if (temp >= 46 && temp < 56) SET_D1_RED();
  3961  0018A4  BE02               	btfsc	DO_DISPLAY_D1@temp+1,7,c
  3962  0018A6  D011               	goto	l1701
  3963  0018A8  5002               	movf	DO_DISPLAY_D1@temp+1,w,c
  3964  0018AA  E104               	bnz	u1470
  3965  0018AC  0E2E               	movlw	46
  3966  0018AE  5C01               	subwf	DO_DISPLAY_D1@temp,w,c
  3967  0018B0  A0D8               	btfss	status,0,c
  3968  0018B2  D00B               	goto	l1701
  3969  0018B4                     u1470:
  3970  0018B4  BE02               	btfsc	DO_DISPLAY_D1@temp+1,7,c
  3971  0018B6  D006               	goto	l1699
  3972  0018B8  5002               	movf	DO_DISPLAY_D1@temp+1,w,c
  3973  0018BA  E107               	bnz	l1701
  3974  0018BC  0E38               	movlw	56
  3975  0018BE  5C01               	subwf	DO_DISPLAY_D1@temp,w,c
  3976  0018C0  B0D8               	btfsc	status,0,c
  3977  0018C2  D003               	goto	l1701
  3978  0018C4                     l1699:
  3979  0018C4  ECCC  F00E         	call	_SET_D1_RED	;wreg free
  3980  0018C8  D031               	goto	l133
  3981  0018CA                     l1701:
  3982                           
  3983                           ;Lab5_Test.c: 141: else if (temp >= 56 && temp < 66) SET_D1_GREEN();
  3984  0018CA  BE02               	btfsc	DO_DISPLAY_D1@temp+1,7,c
  3985  0018CC  D011               	goto	l1707
  3986  0018CE  5002               	movf	DO_DISPLAY_D1@temp+1,w,c
  3987  0018D0  E104               	bnz	u1490
  3988  0018D2  0E38               	movlw	56
  3989  0018D4  5C01               	subwf	DO_DISPLAY_D1@temp,w,c
  3990  0018D6  A0D8               	btfss	status,0,c
  3991  0018D8  D00B               	goto	l1707
  3992  0018DA                     u1490:
  3993  0018DA  BE02               	btfsc	DO_DISPLAY_D1@temp+1,7,c
  3994  0018DC  D006               	goto	l1705
  3995  0018DE  5002               	movf	DO_DISPLAY_D1@temp+1,w,c
  3996  0018E0  E107               	bnz	l1707
  3997  0018E2  0E42               	movlw	66
  3998  0018E4  5C01               	subwf	DO_DISPLAY_D1@temp,w,c
  3999  0018E6  B0D8               	btfsc	status,0,c
  4000  0018E8  D003               	goto	l1707
  4001  0018EA                     l1705:
  4002  0018EA  ECD0  F00E         	call	_SET_D1_GREEN	;wreg free
  4003  0018EE  D01E               	goto	l133
  4004  0018F0                     l1707:
  4005                           
  4006                           ;Lab5_Test.c: 142: else if (temp >= 66 && temp < 76) SET_D1_BLUE();
  4007  0018F0  BE02               	btfsc	DO_DISPLAY_D1@temp+1,7,c
  4008  0018F2  D011               	goto	l1713
  4009  0018F4  5002               	movf	DO_DISPLAY_D1@temp+1,w,c
  4010  0018F6  E104               	bnz	u1510
  4011  0018F8  0E42               	movlw	66
  4012  0018FA  5C01               	subwf	DO_DISPLAY_D1@temp,w,c
  4013  0018FC  A0D8               	btfss	status,0,c
  4014  0018FE  D00B               	goto	l1713
  4015  001900                     u1510:
  4016  001900  BE02               	btfsc	DO_DISPLAY_D1@temp+1,7,c
  4017  001902  D006               	goto	l1711
  4018  001904  5002               	movf	DO_DISPLAY_D1@temp+1,w,c
  4019  001906  E107               	bnz	l1713
  4020  001908  0E4C               	movlw	76
  4021  00190A  5C01               	subwf	DO_DISPLAY_D1@temp,w,c
  4022  00190C  B0D8               	btfsc	status,0,c
  4023  00190E  D003               	goto	l1713
  4024  001910                     l1711:
  4025  001910  ECD8  F00E         	call	_SET_D1_BLUE	;wreg free
  4026  001914  D00B               	goto	l133
  4027  001916                     l1713:
  4028                           
  4029                           ;Lab5_Test.c: 143: else if (temp >= 76) SET_D1_WHITE();
  4030  001916  BE02               	btfsc	DO_DISPLAY_D1@temp+1,7,c
  4031  001918  D009               	goto	l133
  4032  00191A  5002               	movf	DO_DISPLAY_D1@temp+1,w,c
  4033  00191C  E104               	bnz	u1530
  4034  00191E  0E4C               	movlw	76
  4035  001920  5C01               	subwf	DO_DISPLAY_D1@temp,w,c
  4036  001922  A0D8               	btfss	status,0,c
  4037  001924  D003               	goto	l133
  4038  001926                     u1530:
  4039  001926  ECC8  F00E         	call	_SET_D1_WHITE	;wreg free
  4040  00192A  D000               	goto	l133
  4041  00192C                     l133:
  4042  00192C  0012               	return		;funcret
  4043  00192E                     __end_of_DO_DISPLAY_D1:
  4044                           	opt stack 0
  4045                           tblptru	equ	0xFF8
  4046                           tblptrh	equ	0xFF7
  4047                           tblptrl	equ	0xFF6
  4048                           tablat	equ	0xFF5
  4049                           prodh	equ	0xFF4
  4050                           prodl	equ	0xFF3
  4051                           postinc0	equ	0xFEE
  4052                           postdec1	equ	0xFE5
  4053                           fsr1l	equ	0xFE1
  4054                           indf2	equ	0xFDF
  4055                           postinc2	equ	0xFDE
  4056                           postdec2	equ	0xFDD
  4057                           fsr2h	equ	0xFDA
  4058                           fsr2l	equ	0xFD9
  4059                           status	equ	0xFD8
  4060                           
  4061 ;; *************** function _SET_D1_WHITE *****************
  4062 ;; Defined at:
  4063 ;;		line 208 in file "Lab5_Test.c"
  4064 ;; Parameters:    Size  Location     Type
  4065 ;;		None
  4066 ;; Auto vars:     Size  Location     Type
  4067 ;;		None
  4068 ;; Return value:  Size  Location     Type
  4069 ;;		None               void
  4070 ;; Registers used:
  4071 ;;		None
  4072 ;; Tracked objects:
  4073 ;;		On entry : 0/0
  4074 ;;		On exit  : 0/0
  4075 ;;		Unchanged: 0/0
  4076 ;; Data sizes:     COMRAM   BANK0   BANK1   BANK2   BANK3   BANK4   BANK5   BANK6   BANK7   BANK8   BANK9  BANK10  BANK1
      +1  BANK12  BANK13  BANK14  BANK15
  4077 ;;      Params:         0       0       0       0       0       0       0       0       0       0       0       0       
      +0       0       0       0       0
  4078 ;;      Locals:         0       0       0       0       0       0       0       0       0       0       0       0       
      +0       0       0       0       0
  4079 ;;      Temps:          0       0       0       0       0       0       0       0       0       0       0       0       
      +0       0       0       0       0
  4080 ;;      Totals:         0       0       0       0       0       0       0       0       0       0       0       0       
      +0       0       0       0       0
  4081 ;;Total ram usage:        0 bytes
  4082 ;; Hardware stack levels used:    1
  4083 ;; This function calls:
  4084 ;;		Nothing
  4085 ;; This function is called by:
  4086 ;;		_DO_DISPLAY_D1
  4087 ;; This function uses a non-reentrant model
  4088 ;;
  4089                           
  4090                           	psect	text29
  4091  001D90                     __ptext29:
  4092                           	opt stack 0
  4093  001D90                     _SET_D1_WHITE:
  4094                           	opt stack 29
  4095                           
  4096                           ;Lab5_Test.c: 210: PORTBbits.RB5 = 1;
  4097                           
  4098                           ;incstack = 0
  4099  001D90  8A81               	bsf	3969,5,c	;volatile
  4100                           
  4101                           ;Lab5_Test.c: 211: PORTBbits.RB6 = 1;
  4102  001D92  8C81               	bsf	3969,6,c	;volatile
  4103                           
  4104                           ;Lab5_Test.c: 212: PORTBbits.RB7 = 1;
  4105  001D94  8E81               	bsf	3969,7,c	;volatile
  4106  001D96  0012               	return		;funcret
  4107  001D98                     __end_of_SET_D1_WHITE:
  4108                           	opt stack 0
  4109                           tblptru	equ	0xFF8
  4110                           tblptrh	equ	0xFF7
  4111                           tblptrl	equ	0xFF6
  4112                           tablat	equ	0xFF5
  4113                           prodh	equ	0xFF4
  4114                           prodl	equ	0xFF3
  4115                           postinc0	equ	0xFEE
  4116                           postdec1	equ	0xFE5
  4117                           fsr1l	equ	0xFE1
  4118                           indf2	equ	0xFDF
  4119                           postinc2	equ	0xFDE
  4120                           postdec2	equ	0xFDD
  4121                           fsr2h	equ	0xFDA
  4122                           fsr2l	equ	0xFD9
  4123                           status	equ	0xFD8
  4124                           
  4125 ;; *************** function _SET_D1_RED *****************
  4126 ;; Defined at:
  4127 ;;		line 187 in file "Lab5_Test.c"
  4128 ;; Parameters:    Size  Location     Type
  4129 ;;		None
  4130 ;; Auto vars:     Size  Location     Type
  4131 ;;		None
  4132 ;; Return value:  Size  Location     Type
  4133 ;;		None               void
  4134 ;; Registers used:
  4135 ;;		None
  4136 ;; Tracked objects:
  4137 ;;		On entry : 0/0
  4138 ;;		On exit  : 0/0
  4139 ;;		Unchanged: 0/0
  4140 ;; Data sizes:     COMRAM   BANK0   BANK1   BANK2   BANK3   BANK4   BANK5   BANK6   BANK7   BANK8   BANK9  BANK10  BANK1
      +1  BANK12  BANK13  BANK14  BANK15
  4141 ;;      Params:         0       0       0       0       0       0       0       0       0       0       0       0       
      +0       0       0       0       0
  4142 ;;      Locals:         0       0       0       0       0       0       0       0       0       0       0       0       
      +0       0       0       0       0
  4143 ;;      Temps:          0       0       0       0       0       0       0       0       0       0       0       0       
      +0       0       0       0       0
  4144 ;;      Totals:         0       0       0       0       0       0       0       0       0       0       0       0       
      +0       0       0       0       0
  4145 ;;Total ram usage:        0 bytes
  4146 ;; Hardware stack levels used:    1
  4147 ;; This function calls:
  4148 ;;		Nothing
  4149 ;; This function is called by:
  4150 ;;		_DO_DISPLAY_D1
  4151 ;; This function uses a non-reentrant model
  4152 ;;
  4153                           
  4154                           	psect	text30
  4155  001D98                     __ptext30:
  4156                           	opt stack 0
  4157  001D98                     _SET_D1_RED:
  4158                           	opt stack 29
  4159                           
  4160                           ;Lab5_Test.c: 189: PORTBbits.RB5 = 1;
  4161                           
  4162                           ;incstack = 0
  4163  001D98  8A81               	bsf	3969,5,c	;volatile
  4164                           
  4165                           ;Lab5_Test.c: 190: PORTBbits.RB6 = 0;
  4166  001D9A  9C81               	bcf	3969,6,c	;volatile
  4167                           
  4168                           ;Lab5_Test.c: 191: PORTBbits.RB7 = 0;
  4169  001D9C  9E81               	bcf	3969,7,c	;volatile
  4170  001D9E  0012               	return		;funcret
  4171  001DA0                     __end_of_SET_D1_RED:
  4172                           	opt stack 0
  4173                           tblptru	equ	0xFF8
  4174                           tblptrh	equ	0xFF7
  4175                           tblptrl	equ	0xFF6
  4176                           tablat	equ	0xFF5
  4177                           prodh	equ	0xFF4
  4178                           prodl	equ	0xFF3
  4179                           postinc0	equ	0xFEE
  4180                           postdec1	equ	0xFE5
  4181                           fsr1l	equ	0xFE1
  4182                           indf2	equ	0xFDF
  4183                           postinc2	equ	0xFDE
  4184                           postdec2	equ	0xFDD
  4185                           fsr2h	equ	0xFDA
  4186                           fsr2l	equ	0xFD9
  4187                           status	equ	0xFD8
  4188                           
  4189 ;; *************** function _SET_D1_GREEN *****************
  4190 ;; Defined at:
  4191 ;;		line 194 in file "Lab5_Test.c"
  4192 ;; Parameters:    Size  Location     Type
  4193 ;;		None
  4194 ;; Auto vars:     Size  Location     Type
  4195 ;;		None
  4196 ;; Return value:  Size  Location     Type
  4197 ;;		None               void
  4198 ;; Registers used:
  4199 ;;		None
  4200 ;; Tracked objects:
  4201 ;;		On entry : 0/0
  4202 ;;		On exit  : 0/0
  4203 ;;		Unchanged: 0/0
  4204 ;; Data sizes:     COMRAM   BANK0   BANK1   BANK2   BANK3   BANK4   BANK5   BANK6   BANK7   BANK8   BANK9  BANK10  BANK1
      +1  BANK12  BANK13  BANK14  BANK15
  4205 ;;      Params:         0       0       0       0       0       0       0       0       0       0       0       0       
      +0       0       0       0       0
  4206 ;;      Locals:         0       0       0       0       0       0       0       0       0       0       0       0       
      +0       0       0       0       0
  4207 ;;      Temps:          0       0       0       0       0       0       0       0       0       0       0       0       
      +0       0       0       0       0
  4208 ;;      Totals:         0       0       0       0       0       0       0       0       0       0       0       0       
      +0       0       0       0       0
  4209 ;;Total ram usage:        0 bytes
  4210 ;; Hardware stack levels used:    1
  4211 ;; This function calls:
  4212 ;;		Nothing
  4213 ;; This function is called by:
  4214 ;;		_DO_DISPLAY_D1
  4215 ;; This function uses a non-reentrant model
  4216 ;;
  4217                           
  4218                           	psect	text31
  4219  001DA0                     __ptext31:
  4220                           	opt stack 0
  4221  001DA0                     _SET_D1_GREEN:
  4222                           	opt stack 29
  4223                           
  4224                           ;Lab5_Test.c: 196: PORTBbits.RB5 = 0;
  4225                           
  4226                           ;incstack = 0
  4227  001DA0  9A81               	bcf	3969,5,c	;volatile
  4228                           
  4229                           ;Lab5_Test.c: 197: PORTBbits.RB6 = 1;
  4230  001DA2  8C81               	bsf	3969,6,c	;volatile
  4231                           
  4232                           ;Lab5_Test.c: 198: PORTBbits.RB7 = 0;
  4233  001DA4  9E81               	bcf	3969,7,c	;volatile
  4234  001DA6  0012               	return		;funcret
  4235  001DA8                     __end_of_SET_D1_GREEN:
  4236                           	opt stack 0
  4237                           tblptru	equ	0xFF8
  4238                           tblptrh	equ	0xFF7
  4239                           tblptrl	equ	0xFF6
  4240                           tablat	equ	0xFF5
  4241                           prodh	equ	0xFF4
  4242                           prodl	equ	0xFF3
  4243                           postinc0	equ	0xFEE
  4244                           postdec1	equ	0xFE5
  4245                           fsr1l	equ	0xFE1
  4246                           indf2	equ	0xFDF
  4247                           postinc2	equ	0xFDE
  4248                           postdec2	equ	0xFDD
  4249                           fsr2h	equ	0xFDA
  4250                           fsr2l	equ	0xFD9
  4251                           status	equ	0xFD8
  4252                           
  4253 ;; *************** function _SET_D1_CLEAR *****************
  4254 ;; Defined at:
  4255 ;;		line 180 in file "Lab5_Test.c"
  4256 ;; Parameters:    Size  Location     Type
  4257 ;;		None
  4258 ;; Auto vars:     Size  Location     Type
  4259 ;;		None
  4260 ;; Return value:  Size  Location     Type
  4261 ;;		None               void
  4262 ;; Registers used:
  4263 ;;		None
  4264 ;; Tracked objects:
  4265 ;;		On entry : 0/0
  4266 ;;		On exit  : 0/0
  4267 ;;		Unchanged: 0/0
  4268 ;; Data sizes:     COMRAM   BANK0   BANK1   BANK2   BANK3   BANK4   BANK5   BANK6   BANK7   BANK8   BANK9  BANK10  BANK1
      +1  BANK12  BANK13  BANK14  BANK15
  4269 ;;      Params:         0       0       0       0       0       0       0       0       0       0       0       0       
      +0       0       0       0       0
  4270 ;;      Locals:         0       0       0       0       0       0       0       0       0       0       0       0       
      +0       0       0       0       0
  4271 ;;      Temps:          0       0       0       0       0       0       0       0       0       0       0       0       
      +0       0       0       0       0
  4272 ;;      Totals:         0       0       0       0       0       0       0       0       0       0       0       0       
      +0       0       0       0       0
  4273 ;;Total ram usage:        0 bytes
  4274 ;; Hardware stack levels used:    1
  4275 ;; This function calls:
  4276 ;;		Nothing
  4277 ;; This function is called by:
  4278 ;;		_DO_DISPLAY_D1
  4279 ;; This function uses a non-reentrant model
  4280 ;;
  4281                           
  4282                           	psect	text32
  4283  001DA8                     __ptext32:
  4284                           	opt stack 0
  4285  001DA8                     _SET_D1_CLEAR:
  4286                           	opt stack 29
  4287                           
  4288                           ;Lab5_Test.c: 182: PORTBbits.RB5 = 0;
  4289                           
  4290                           ;incstack = 0
  4291  001DA8  9A81               	bcf	3969,5,c	;volatile
  4292                           
  4293                           ;Lab5_Test.c: 183: PORTBbits.RB6 = 0;
  4294  001DAA  9C81               	bcf	3969,6,c	;volatile
  4295                           
  4296                           ;Lab5_Test.c: 184: PORTBbits.RB7 = 0;
  4297  001DAC  9E81               	bcf	3969,7,c	;volatile
  4298  001DAE  0012               	return		;funcret
  4299  001DB0                     __end_of_SET_D1_CLEAR:
  4300                           	opt stack 0
  4301                           tblptru	equ	0xFF8
  4302                           tblptrh	equ	0xFF7
  4303                           tblptrl	equ	0xFF6
  4304                           tablat	equ	0xFF5
  4305                           prodh	equ	0xFF4
  4306                           prodl	equ	0xFF3
  4307                           postinc0	equ	0xFEE
  4308                           postdec1	equ	0xFE5
  4309                           fsr1l	equ	0xFE1
  4310                           indf2	equ	0xFDF
  4311                           postinc2	equ	0xFDE
  4312                           postdec2	equ	0xFDD
  4313                           fsr2h	equ	0xFDA
  4314                           fsr2l	equ	0xFD9
  4315                           status	equ	0xFD8
  4316                           
  4317 ;; *************** function _SET_D1_BLUE *****************
  4318 ;; Defined at:
  4319 ;;		line 201 in file "Lab5_Test.c"
  4320 ;; Parameters:    Size  Location     Type
  4321 ;;		None
  4322 ;; Auto vars:     Size  Location     Type
  4323 ;;		None
  4324 ;; Return value:  Size  Location     Type
  4325 ;;		None               void
  4326 ;; Registers used:
  4327 ;;		None
  4328 ;; Tracked objects:
  4329 ;;		On entry : 0/0
  4330 ;;		On exit  : 0/0
  4331 ;;		Unchanged: 0/0
  4332 ;; Data sizes:     COMRAM   BANK0   BANK1   BANK2   BANK3   BANK4   BANK5   BANK6   BANK7   BANK8   BANK9  BANK10  BANK1
      +1  BANK12  BANK13  BANK14  BANK15
  4333 ;;      Params:         0       0       0       0       0       0       0       0       0       0       0       0       
      +0       0       0       0       0
  4334 ;;      Locals:         0       0       0       0       0       0       0       0       0       0       0       0       
      +0       0       0       0       0
  4335 ;;      Temps:          0       0       0       0       0       0       0       0       0       0       0       0       
      +0       0       0       0       0
  4336 ;;      Totals:         0       0       0       0       0       0       0       0       0       0       0       0       
      +0       0       0       0       0
  4337 ;;Total ram usage:        0 bytes
  4338 ;; Hardware stack levels used:    1
  4339 ;; This function calls:
  4340 ;;		Nothing
  4341 ;; This function is called by:
  4342 ;;		_DO_DISPLAY_D1
  4343 ;; This function uses a non-reentrant model
  4344 ;;
  4345                           
  4346                           	psect	text33
  4347  001DB0                     __ptext33:
  4348                           	opt stack 0
  4349  001DB0                     _SET_D1_BLUE:
  4350                           	opt stack 29
  4351                           
  4352                           ;Lab5_Test.c: 203: PORTBbits.RB5 = 0;
  4353                           
  4354                           ;incstack = 0
  4355  001DB0  9A81               	bcf	3969,5,c	;volatile
  4356                           
  4357                           ;Lab5_Test.c: 204: PORTBbits.RB6 = 0;
  4358  001DB2  9C81               	bcf	3969,6,c	;volatile
  4359                           
  4360                           ;Lab5_Test.c: 205: PORTBbits.RB7 = 1;
  4361  001DB4  8E81               	bsf	3969,7,c	;volatile
  4362  001DB6  0012               	return		;funcret
  4363  001DB8                     __end_of_SET_D1_BLUE:
  4364                           	opt stack 0
  4365                           tblptru	equ	0xFF8
  4366                           tblptrh	equ	0xFF7
  4367                           tblptrl	equ	0xFF6
  4368                           tablat	equ	0xFF5
  4369                           prodh	equ	0xFF4
  4370                           prodl	equ	0xFF3
  4371                           postinc0	equ	0xFEE
  4372                           postdec1	equ	0xFE5
  4373                           fsr1l	equ	0xFE1
  4374                           indf2	equ	0xFDF
  4375                           postinc2	equ	0xFDE
  4376                           postdec2	equ	0xFDD
  4377                           fsr2h	equ	0xFDA
  4378                           fsr2l	equ	0xFD9
  4379                           status	equ	0xFD8
  4380                           tblptru	equ	0xFF8
  4381                           tblptrh	equ	0xFF7
  4382                           tblptrl	equ	0xFF6
  4383                           tablat	equ	0xFF5
  4384                           prodh	equ	0xFF4
  4385                           prodl	equ	0xFF3
  4386                           postinc0	equ	0xFEE
  4387                           postdec1	equ	0xFE5
  4388                           fsr1l	equ	0xFE1
  4389                           indf2	equ	0xFDF
  4390                           postinc2	equ	0xFDE
  4391                           postdec2	equ	0xFDD
  4392                           fsr2h	equ	0xFDA
  4393                           fsr2l	equ	0xFD9
  4394                           status	equ	0xFD8
  4395                           
  4396                           	psect	rparam
  4397  0000                     tblptru	equ	0xFF8
  4398                           tblptrh	equ	0xFF7
  4399                           tblptrl	equ	0xFF6
  4400                           tablat	equ	0xFF5
  4401                           prodh	equ	0xFF4
  4402                           prodl	equ	0xFF3
  4403                           postinc0	equ	0xFEE
  4404                           postdec1	equ	0xFE5
  4405                           fsr1l	equ	0xFE1
  4406                           indf2	equ	0xFDF
  4407                           postinc2	equ	0xFDE
  4408                           postdec2	equ	0xFDD
  4409                           fsr2h	equ	0xFDA
  4410                           fsr2l	equ	0xFD9
  4411                           status	equ	0xFD8


Data Sizes:
    Strings     46
    Constant    10
    Data        10
    BSS         0
    Persistent  0
    Stack       0

Auto Spaces:
    Space          Size  Autos    Used
    COMRAM          127     73      83
    BANK0           128      0       0
    BANK1           256      0       0
    BANK2           256      0       0
    BANK3           256      0       0
    BANK4           256      0       0
    BANK5           256      0       0
    BANK6           256      0       0
    BANK7           256      0       0
    BANK8           256      0       0
    BANK9           256      0       0
    BANK10          256      0       0
    BANK11          256      0       0
    BANK12          256      0       0
    BANK13          256      0       0
    BANK14          256      0       0
    BANK15          128      0       0

Pointer List with Targets:

    printf@f	PTR const unsigned char  size(2) Largest target is 23
		 -> STR_2(CODE[23]), STR_1(CODE[23]), 

    printf@ap	PTR void [1] size(2) Largest target is 2
		 -> ?_printf(COMRAM[2]), 


Critical Paths under _main in COMRAM

    _main->___ftdiv
    _printf->___lwmod
    ___lwmod->___lwdiv
    ___ftmul->___awtoft
    ___ftdiv->___ftadd
    ___ftadd->___ftmul
    ___awtoft->___ftpack
    _Init_UART->_OpenUSART
    _DO_DISPLAY_D2->___awdiv

Critical Paths under _main in BANK0

    None.

Critical Paths under _main in BANK1

    None.

Critical Paths under _main in BANK2

    None.

Critical Paths under _main in BANK3

    None.

Critical Paths under _main in BANK4

    None.

Critical Paths under _main in BANK5

    None.

Critical Paths under _main in BANK6

    None.

Critical Paths under _main in BANK7

    None.

Critical Paths under _main in BANK8

    None.

Critical Paths under _main in BANK9

    None.

Critical Paths under _main in BANK10

    None.

Critical Paths under _main in BANK11

    None.

Critical Paths under _main in BANK12

    None.

Critical Paths under _main in BANK13

    None.

Critical Paths under _main in BANK14

    None.

Critical Paths under _main in BANK15

    None.

Call Graph Tables:

 ---------------------------------------------------------------------------------
 (Depth) Function   	        Calls       Base Space   Used Autos Params    Refs
 ---------------------------------------------------------------------------------
 (0) _main                                                19    19      0   13389
                                             54 COMRAM    19    19      0
                      _DO_DISPLAY_D1
                      _DO_DISPLAY_D2
                      _DO_DISPLAY_D3
                _Display_Lower_Digit
                _Display_Upper_Digit
                       _Get_Full_ADC
                           _Init_ADC
                          _Init_TRIS
                          _Init_UART
                 _Select_ADC_Channel
                         _WAIT_1_SEC
                            ___awdiv
                            ___awmod
                           ___awtoft
                            ___ftadd
                            ___ftdiv
                            ___ftmul
                            ___ftneg
                            ___fttol
                             _printf
 ---------------------------------------------------------------------------------
 (1) _printf                                              21    17      4    1040
                                             12 COMRAM    12     8      4
                            ___lwdiv
                            ___lwmod
                              _putch
 ---------------------------------------------------------------------------------
 (2) _putch                                                1     1      0      15
                                              0 COMRAM     1     1      0
 ---------------------------------------------------------------------------------
 (2) ___lwmod                                              5     1      4     265
                                              7 COMRAM     5     1      4
                            ___lwdiv (ARG)
 ---------------------------------------------------------------------------------
 (2) ___lwdiv                                              7     3      4     268
                                              0 COMRAM     7     3      4
 ---------------------------------------------------------------------------------
 (1) ___fttol                                             15    11      4     305
                                              0 COMRAM    15    11      4
 ---------------------------------------------------------------------------------
 (1) ___ftneg                                              3     0      3      98
                                              0 COMRAM     3     0      3
 ---------------------------------------------------------------------------------
 (1) ___ftmul                                             15     9      6    2325
                                             12 COMRAM    15     9      6
                           ___awtoft (ARG)
                           ___ftpack
 ---------------------------------------------------------------------------------
 (1) ___ftdiv                                             15     9      6    2173
                                             39 COMRAM    15     9      6
                            ___ftadd (ARG)
                            ___ftneg (ARG)
                           ___ftpack
 ---------------------------------------------------------------------------------
 (1) ___ftadd                                             12     6      6    2919
                                             27 COMRAM    12     6      6
                            ___ftmul (ARG)
                            ___ftneg (ARG)
                           ___ftpack
 ---------------------------------------------------------------------------------
 (1) ___awtoft                                             4     1      3    1851
                                              8 COMRAM     4     1      3
                           ___ftpack
 ---------------------------------------------------------------------------------
 (2) ___ftpack                                             8     3      5    1707
                                              0 COMRAM     8     3      5
 ---------------------------------------------------------------------------------
 (1) ___awmod                                              6     2      4     402
                                              0 COMRAM     6     2      4
 ---------------------------------------------------------------------------------
 (1) _WAIT_1_SEC                                           2     2      0      30
                                              0 COMRAM     2     2      0
 ---------------------------------------------------------------------------------
 (1) _Select_ADC_Channel                                   1     1      0      15
                                              0 COMRAM     1     1      0
 ---------------------------------------------------------------------------------
 (1) _Init_UART                                            0     0      0     273
                          _OpenUSART
 ---------------------------------------------------------------------------------
 (2) _OpenUSART                                            3     1      2     273
                                              0 COMRAM     3     1      2
 ---------------------------------------------------------------------------------
 (1) _Init_TRIS                                            0     0      0       0
 ---------------------------------------------------------------------------------
 (1) _Init_ADC                                             0     0      0       0
 ---------------------------------------------------------------------------------
 (1) _Get_Full_ADC                                         6     4      2      23
                                              0 COMRAM     6     4      2
 ---------------------------------------------------------------------------------
 (1) _Display_Upper_Digit                                  2     2      0      45
                                              0 COMRAM     2     2      0
 ---------------------------------------------------------------------------------
 (1) _Display_Lower_Digit                                  1     1      0      15
                                              0 COMRAM     1     1      0
 ---------------------------------------------------------------------------------
 (1) _DO_DISPLAY_D3                                        2     0      2     141
                                              0 COMRAM     2     0      2
                       _SET_D3_GREEN
                         _SET_D3_RED
                      _SET_D3_YELLOW
 ---------------------------------------------------------------------------------
 (2) _SET_D3_YELLOW                                        0     0      0       0
 ---------------------------------------------------------------------------------
 (2) _SET_D3_RED                                           0     0      0       0
 ---------------------------------------------------------------------------------
 (2) _SET_D3_GREEN                                         0     0      0       0
 ---------------------------------------------------------------------------------
 (1) _DO_DISPLAY_D2                                        4     2      2     676
                                              8 COMRAM     4     2      2
                            ___awdiv
 ---------------------------------------------------------------------------------
 (1) ___awdiv                                              8     4      4     512
                                              0 COMRAM     8     4      4
 ---------------------------------------------------------------------------------
 (1) _DO_DISPLAY_D1                                        2     0      2     229
                                              0 COMRAM     2     0      2
                        _SET_D1_BLUE
                       _SET_D1_CLEAR
                       _SET_D1_GREEN
                         _SET_D1_RED
                       _SET_D1_WHITE
 ---------------------------------------------------------------------------------
 (2) _SET_D1_WHITE                                         0     0      0       0
 ---------------------------------------------------------------------------------
 (2) _SET_D1_RED                                           0     0      0       0
 ---------------------------------------------------------------------------------
 (2) _SET_D1_GREEN                                         0     0      0       0
 ---------------------------------------------------------------------------------
 (2) _SET_D1_CLEAR                                         0     0      0       0
 ---------------------------------------------------------------------------------
 (2) _SET_D1_BLUE                                          0     0      0       0
 ---------------------------------------------------------------------------------
 Estimated maximum stack depth 2
 ---------------------------------------------------------------------------------

 Call Graph Graphs:

 _main (ROOT)
   _DO_DISPLAY_D1
     _SET_D1_BLUE
     _SET_D1_CLEAR
     _SET_D1_GREEN
     _SET_D1_RED
     _SET_D1_WHITE
   _DO_DISPLAY_D2
     ___awdiv
   _DO_DISPLAY_D3
     _SET_D3_GREEN
     _SET_D3_RED
     _SET_D3_YELLOW
   _Display_Lower_Digit
   _Display_Upper_Digit
   _Get_Full_ADC
   _Init_ADC
   _Init_TRIS
   _Init_UART
     _OpenUSART
   _Select_ADC_Channel
   _WAIT_1_SEC
   ___awdiv
   ___awmod
   ___awtoft
     ___ftpack
   ___ftadd
     ___ftmul (ARG)
       ___awtoft (ARG)
         ___ftpack
       ___ftpack (ARG)
     ___ftneg (ARG)
     ___ftpack (ARG)
   ___ftdiv
     ___ftadd (ARG)
       ___ftmul (ARG)
         ___awtoft (ARG)
           ___ftpack
         ___ftpack (ARG)
       ___ftneg (ARG)
       ___ftpack (ARG)
     ___ftneg (ARG)
     ___ftpack (ARG)
   ___ftmul
     ___awtoft (ARG)
       ___ftpack
     ___ftpack (ARG)
   ___ftneg
   ___fttol
   _printf
     ___lwdiv
     ___lwmod
       ___lwdiv (ARG)
     _putch

 Address spaces:
Name               Size   Autos  Total    Cost      Usage
BIGRAM             F7F      0       0      37        0.0%
EEDATA             400      0       0       0        0.0%
BITBANK14          100      0       0      32        0.0%
BANK14             100      0       0      33        0.0%
BITBANK13          100      0       0      30        0.0%
BANK13             100      0       0      31        0.0%
BITBANK12          100      0       0      28        0.0%
BANK12             100      0       0      29        0.0%
BITBANK11          100      0       0      26        0.0%
BANK11             100      0       0      27        0.0%
BITBANK10          100      0       0      24        0.0%
BANK10             100      0       0      25        0.0%
BITBANK9           100      0       0      22        0.0%
BANK9              100      0       0      23        0.0%
BITBANK8           100      0       0      20        0.0%
BANK8              100      0       0      21        0.0%
BITBANK7           100      0       0      18        0.0%
BANK7              100      0       0      19        0.0%
BITBANK6           100      0       0      16        0.0%
BANK6              100      0       0      17        0.0%
BITBANK5           100      0       0      14        0.0%
BANK5              100      0       0      15        0.0%
BITBANK4           100      0       0      12        0.0%
BANK4              100      0       0      13        0.0%
BITBANK3           100      0       0      10        0.0%
BANK3              100      0       0      11        0.0%
BITBANK2           100      0       0       8        0.0%
BANK2              100      0       0       9        0.0%
BITBANK1           100      0       0       6        0.0%
BANK1              100      0       0       7        0.0%
BITBANK15           80      0       0      35        0.0%
BANK15              80      0       0      36        0.0%
BITBANK0            80      0       0       4        0.0%
BANK0               80      0       0       5        0.0%
BITCOMRAM           7F      0       0       0        0.0%
COMRAM              7F     49      53       1       65.4%
BITSFR               0      0       0      40        0.0%
SFR                  0      0       0      40        0.0%
STACK                0      0       0       2        0.0%
NULL                 0      0       0       0        0.0%
ABS                  0      0      53      34        0.0%
DATA                 0      0      53       3        0.0%
CODE                 0      0       0       0        0.0%


Microchip Technology PIC18 Macro Assembler V1.34 build -361300703 
Symbol Table                                                                                   Wed Mar 09 16:25:38 2022

                          l82 1D66                            l93 1D1E                  ___awdiv@sign 0006  
                ___ftadd@exp1 0027                  ___ftadd@exp2 0026                  ___ftadd@sign 0025  
                         l110 1CB6                           l200 1506                           l113 1CD6  
                         l140 1B6A                           l133 192C                           l118 1C4A  
                         l230 1A98                           l231 1A9A                           l224 1A72  
                         l233 1AB4                           l146 1BBE                           l228 1A8C  
                         l229 1A8E                           l442 1A44                           l429 19C2  
                         l454 1C86                           l631 15FE                           l544 188C  
                         l608 1352                           l616 17C6                           l641 1CEE  
                         l555 1864                           l619 1792                           l652 16E4  
                         l584 124A                           l585 13C8                           l754 1B08  
                         l588 1274                           l764 1C02                           l599 1336  
                ___awmod@sign 0006                           prod 000FF3                  __CFG_LVP$OFF 000000  
              ?_DO_DISPLAY_D1 0001                ?_DO_DISPLAY_D2 0009                ?_DO_DISPLAY_D3 0001  
                ___ftdiv@cntr 0031                  ___ftdiv@sign 0036                  __CFG_WDT$OFF 000000  
                        l1023 1D18                          l1019 1D04                          l2003 16D2  
                        l1045 1C44                          l2015 1050                          l1521 17F4  
                        l1601 1ADE                          l1531 1858                          l1523 1814  
                        l1515 17D8                          l1701 18CA                          l1621 1BE0  
                        l1711 1910                          l1471 1A62                          l1543 187E  
                        l1527 182C                          l1519 17E8                          l1713 1916  
                        l1705 18EA                          l1561 1956                          l1537 186C  
                        l1529 184C                          l1801 1370                          l1609 1AFC  
                        l1625 1BF6                          l1617 1BCE                          l1707 18F0  
                        l1571 197E                          l1555 1944                          l1723 1B4C  
                        l1475 1A6A                          l1467 1A58                          l1811 13A2  
                        l1619 1BD8                          l1651 13F2                          l1643 13D4  
                        l1725 1B52                          l1741 1BA8                          l1733 1B7C  
                        l1821 1704                          l1901 15C2                          l1653 1418  
                        l1567 196C                          l1583 19A8                          l1727 1B60  
                        l1735 1B82                          l1487 1A84                          l1479 1A76  
                        l1823 171E                          l1663 1442                          l1647 13E4  
                        l1569 1976                          l1729 1B64                          l1921 19E8  
                        l1753 1258                          l1905 15D8                          l1681 148E  
                        l1673 1476                          l1665 1446                          l1587 19B8  
                        l1579 199C                          l1739 1BA2                          l1827 172C  
                        l1683 1494                          l1693 189E                          l1941 1A3A  
                        l1933 1A1E                          l1925 19F6                          l1917 19DA  
                        l1781 12DA                          l1765 128E                          l1597 1ACC  
                        l1677 147A                          l1669 1452                          l1695 18A4  
                        l1927 1A00                          l1783 12E6                          l1775 12B6  
                        l1759 1282                          l1847 176C                          l1599 1AD6  
                        l1687 14DE                          l1929 1A08                          l1937 1A2A  
                        l1953 1C62                          l1793 131E                          l1785 12F2  
                        l1857 17A0                          l1873 154E                          l1689 14EA  
                        l1699 18C4                          l1795 132A                          l1787 12FA  
                        l1891 1594                          l1867 1526                          l1869 1540  
                        l1895 15AA                          l1887 1582                          l1991 168E  
                        l1967 161E                          l1897 15B0                          l1985 1678  
                        l1995 16A2                          l1997 16B0                          l1989 1688  
                        l1999 16BA                          STR_1 100B                          STR_2 1022  
                        u2011 1610                          u2030 163C                          u2035 1634  
                        u1510 1900                          u1530 1926                          u1611 1216  
                        u1540 1B3C                          u1621 122A                          u1470 18B4  
                        u1490 18DA                          u1821 16F6                          u1841 1714  
                        u1871 1518                          u1891 1536                          _TRMT 007D61  
                        _main 103A                  ___ftpack@arg 0001                  ___ftpack@exp 0004  
                        fsr2h 000FDA                          fsr1l 000FE1                          indf2 000FDF  
                        fsr2l 000FD9                          prodh 000FF4                          prodl 000FF3  
                        start 0000                  ___ftmul@cntr 001A                  ___param_bank 000010  
                ___ftmul@sign 001B          __end_of_Get_Full_ADC 1CD8                  ___fttol@exp1 000F  
                ___fttol@lval 000B                   ?_WAIT_1_SEC 0001                   ?_SET_D1_RED 0001  
                       ?_main 0001                   ?_SET_D3_RED 0001               __end_of___awdiv 19C4  
             __end_of___ftadd 13CA               __end_of___awmod 1A46               __end_of___ftdiv 17C8  
             __end_of___ftneg 1CFC               __end_of___ftmul 1600               ___awdiv@divisor 0003  
             __end_of___fttol 16E6               __end_of___lwdiv 1B12               __end_of___lwmod 1C0C  
             ___awdiv@counter 0005                         _RCSTA 000FAB                         _SPBRG 000FAF  
                       _PORTB 000F81                         _PORTC 000F82                         _PORTD 000F83  
                       _PORTE 000F84                         _TRISA 000F92                         _TRISB 000F93  
                       _TRISC 000F94                         _TRISD 000F95                         _TRISE 000F96  
                       _TXREG 000FAD                         _TXSTA 000FAC                 ___awtoft@sign 000C  
             __end_of_dpowers 100B                         _array 004A                 ___ftpack@sign 0005  
                       main@L 0043                         main@U 0042                         _putch 1D62  
                main@num_step 0046                __CFG_BOREN$OFF 000000                         tablat 000FF5  
                       status 000FD8               __initialization 1C88                  __end_of_main 1206  
    Display_Lower_Digit@digit 0001              __end_of_Init_ADC 1D90                        ??_main 0037  
               ___fttol@sign1 000A                 __activetblptr 000002         __end_of_SET_D3_YELLOW 1DBE  
 __end_of_Display_Lower_Digit 1D38               ??_DO_DISPLAY_D1 0003               ??_DO_DISPLAY_D2 000B  
             ??_DO_DISPLAY_D3 0003                  ?_SET_D1_BLUE 0001                        _ADCON0 000FC2  
                      _ADCON1 000FC1                        _ADCON2 000FC0                        _ADRESH 000FC4  
                      _ADRESL 000FC3              ___awdiv@dividend 0001              __end_of___awtoft 1C88  
                      ?_putch 0001              __end_of___ftpack 188E                        _OSCCON 000FD3  
          __size_of_Init_UART 0014            __size_of_Init_TRIS 0016                        _SPBRGH 000FB0  
         __size_of_WAIT_1_SEC 0024            Get_Full_ADC@result 0005           __size_of_SET_D1_RED 0008  
       Display_Upper_Digit@PE 0001           __size_of_SET_D3_RED 0006            __size_of_OpenUSART 0070  
                   ??___awdiv 0005                     ??___ftadd 0022                     ??___awmod 0005  
                   ??___ftdiv 002E                     ??___ftneg 0004                     ??___ftmul 0013  
                   ??___fttol 0005                     ??___lwdiv 0005                     ??___lwmod 000C  
            ___awdiv@quotient 0007               ___awmod@divisor 0003               ___awmod@counter 0005  
                      _printf 13CA         ___ftmul@f3_as_product 0017                  __pdataCOMRAM 004A  
                __mediumconst 0000                        tblptrh 000FF7                        tblptrl 000FF6  
                      tblptru 000FF8                        putch@c 0001                    __accesstop 0080  
     __end_of__initialization 1CA8                    ___ftadd@f1 001C                    ___ftadd@f2 001F  
               ___rparam_used 000001                    ___ftdiv@f1 0028                    ___ftdiv@f2 002B  
                  ___ftdiv@f3 0032         __size_of_Get_Full_ADC 0026                    ___ftneg@f1 0001  
                  ___awtoft@c 0009                    ___ftmul@f1 000D                    ___ftmul@f2 0010  
                  ___fttol@f1 0001                __pcstackCOMRAM 0001                 __end_of_putch 1D70  
           __end_of_Init_UART 1D62             __end_of_Init_TRIS 1D4E   __end_of_Display_Upper_Digit 1C4C  
           __end_of_OpenUSART 1AB6                  _Get_Full_ADC 1CB2                       ??_putch 0001  
                   ?_Init_ADC 0001    __end_of_Select_ADC_Channel 1D7C                 ?_SET_D1_CLEAR 0001  
               ?_SET_D1_GREEN 0001                 ?_SET_D3_GREEN 0001                 ?_SET_D1_WHITE 0001  
                ??_WAIT_1_SEC 0001                     ?___awtoft 0009                     ?___ftpack 0001  
                ??_SET_D1_RED 0001                       ?_printf 000D     Select_ADC_Channel@channel 0001  
                ??_SET_D3_RED 0001                   WAIT_1_SEC@j 0001          __size_of_SET_D1_BLUE 0008  
                  ??_Init_ADC 0001            __end_of_WAIT_1_SEC 1D20            __end_of_SET_D1_RED 1DA0  
          __end_of_SET_D3_RED 1DC4                       __Hparam 0000                       __Lparam 0000  
              ??_SET_D1_CLEAR 0001                ??_SET_D1_GREEN 0001                ??_SET_D3_GREEN 0001  
              ??_SET_D1_WHITE 0001                       ___awdiv 192E                       ___ftadd 1206  
                     ___awmod 19C4                       ___ftdiv 16E6                       ___ftneg 1CD8  
                     ___ftmul 1508                       ___fttol 1600                       ___lwdiv 1AB6  
                     ___lwmod 1BC0                  __psmallconst 1000                       __pcinit 1C88  
                  ??___awtoft 000C                    ??___ftpack 0006                       __ramtop 1000  
                     __ptext0 103A                       __ptext1 13CA                       __ptext2 1D62  
                     __ptext3 1BC0                       __ptext4 1AB6                       __ptext5 1600  
                     __ptext6 1CD8                       __ptext7 1508                       __ptext8 16E6  
                     __ptext9 1206               __size_of_printf 013E                       _dpowers 1001  
            ___awmod@dividend 0001          end_of_initialization 1CA8                DO_DISPLAY_D2@T 000B  
               __Lmediumconst 0000                     _RCSTAbits 000FAB                       printf@c 0018  
                     printf@f 000D                       postdec1 000FE5                       postdec2 000FDD  
                     postinc0 000FEE                       postinc2 000FDE                     _PORTAbits 000F80  
                   _PORTBbits 000F81                     _TRISCbits 000F94                main@voltage_mv 0039  
       __end_of_DO_DISPLAY_D1 192E         __end_of_DO_DISPLAY_D2 1B6C         __end_of_DO_DISPLAY_D3 1BC0  
__size_of_Display_Lower_Digit 0018                   ___ftdiv@exp 0035                     _TXSTAbits 000FAC  
      __size_of_SET_D3_YELLOW 0006                   ___ftmul@exp 0016      Display_Upper_Digit@digit 0002  
               __pidataCOMRAM 1D7C             main@temperature_C 003C             main@temperature_F 003F  
              __end_of_printf 1508           start_initialization 1C88                     _Init_UART 1D4E  
                   _Init_TRIS 1D38          __end_of_SET_D1_CLEAR 1DB0             DO_DISPLAY_D1@temp 0001  
           DO_DISPLAY_D2@temp 0009          __end_of_SET_D1_GREEN 1DA8          __end_of_SET_D3_GREEN 1DCA  
        __end_of_SET_D1_WHITE 1D98                     _OpenUSART 1A46              __CFG_OSC$INTIO67 000000  
           __size_of_Init_ADC 000A          DO_DISPLAY_D3@voltage 0001            _Select_ADC_Channel 1D70  
                    ??_printf 0011             __size_of___awtoft 003C             __size_of___ftpack 00C6  
         ?_Select_ADC_Channel 0001                 _SET_D3_YELLOW 1DB8                    ?_Init_UART 0001  
                  ?_Init_TRIS 0001  __size_of_Display_Upper_Digit 0040                    ?_OpenUSART 0001  
        ??_Select_ADC_Channel 0001              ___lwdiv@dividend 0001                      ?___awdiv 0001  
                    ?___ftadd 001C                      ?___awmod 0001                      ?___ftdiv 0028  
                    ?___ftneg 0001                      ?___ftmul 000D                      ?___fttol 0001  
                    ?___lwdiv 0001                      ?___lwmod 0008                   __smallconst 1000  
              ?_SET_D3_YELLOW 0001                 ??_SET_D1_BLUE 0001              ___lwdiv@quotient 0005  
              __size_of_putch 000E                      _PIE1bits 000F9D                      _PIR1bits 000F9E  
         _Display_Lower_Digit 1D20                    _ADCON0bits 000FC2         __size_of_SET_D1_CLEAR 0008  
                  printf@flag 0014         __size_of_SET_D1_GREEN 0008                    printf@prec 0015  
       __size_of_SET_D3_GREEN 0006         __size_of_SET_D1_WHITE 0008                     main@tempF 0048  
                 ??_Init_UART 0004                   ??_Init_TRIS 0001                     copy_data0 1C9C  
                    _Init_ADC 1D86          ?_Display_Lower_Digit 0001                   ??_OpenUSART 0003  
         __end_of_SET_D1_BLUE 1DB8               OpenUSART@config 0003                      __Hrparam 0000  
                    __Lrparam 0000                  _SET_D1_CLEAR 1DA8                  _SET_D1_GREEN 1DA0  
                _SET_D3_GREEN 1DC4              __size_of___awdiv 0096              __size_of___ftadd 01C4  
            __size_of___awmod 0082                  _SET_D1_WHITE 1D90              __size_of___ftdiv 00E2  
            __size_of___ftneg 0024              __size_of___ftmul 00F8              __size_of___fttol 00E6  
            __size_of___lwdiv 005C              __size_of___lwmod 004C                      ___awtoft 1C4C  
                    ___ftpack 17C8               ??_SET_D3_YELLOW 0001               ___lwdiv@divisor 0003  
             ___lwdiv@counter 0007                      __ptext10 1C4C                      __ptext11 17C8  
                    __ptext20 1C0C                      __ptext12 19C4                      __ptext21 1D20  
                    __ptext13 1CFC                      __ptext30 1D98                      __ptext22 1B6C  
                    __ptext14 1D70                      __ptext31 1DA0                      __ptext23 1DB8  
                    __ptext15 1D4E                      __ptext32 1DA8                      __ptext24 1DBE  
                    __ptext16 1A46                      __ptext33 1DB0                      __ptext25 1DC4  
                    __ptext17 1D38                      __ptext26 1B12                      __ptext18 1D86  
                    __ptext27 192E                      __ptext19 1CB2                      __ptext28 188E  
                    __ptext29 1D90                 ?_Get_Full_ADC 0001         ??_Display_Lower_Digit 0001  
               __size_of_main 01CC        __size_of_DO_DISPLAY_D1 00A0        __size_of_DO_DISPLAY_D2 005A  
      __size_of_DO_DISPLAY_D3 0054                     printf@val 0016           _Display_Upper_Digit 1C0C  
              OpenUSART@spbrg 0001                ??_Get_Full_ADC 0003                   _SET_D1_BLUE 1DB0  
        ?_Display_Upper_Digit 0001              ___lwmod@dividend 0008                      printf@ap 0012  
                  _WAIT_1_SEC 1CFC                    _SET_D1_RED 1D98                    _SET_D3_RED 1DBE  
             ___lwmod@divisor 000A               ___lwmod@counter 000C                 _DO_DISPLAY_D1 188E  
               _DO_DISPLAY_D2 1B12                 _DO_DISPLAY_D3 1B6C         ??_Display_Upper_Digit 0001  
 __size_of_Select_ADC_Channel 000C               main@voltage_mv1 0044  
